   1              		.syntax unified
   2              		.cpu cortex-m4
   3              		.fpu softvfp
   4              		.eabi_attribute 20, 1
   5              		.eabi_attribute 21, 1
   6              		.eabi_attribute 23, 3
   7              		.eabi_attribute 24, 1
   8              		.eabi_attribute 25, 1
   9              		.eabi_attribute 26, 1
  10              		.eabi_attribute 30, 2
  11              		.eabi_attribute 34, 1
  12              		.eabi_attribute 18, 4
  13              		.thumb
  14              		.syntax unified
  15              		.file	"main.cpp"
  16              		.text
  17              	.Ltext0:
  18              		.cfi_sections	.debug_frame
  19              		.section	.text._Z9parse_hexPc,"ax",%progbits
  20              		.align	2
  21              		.global	_Z9parse_hexPc
  22              		.thumb
  23              		.thumb_func
  25              	_Z9parse_hexPc:
  26              		.fnstart
  27              	.LFB479:
  28              		.file 1 "../src/main.cpp"
   1:../src/main.cpp **** #include "WProgram.h"
   2:../src/main.cpp **** #include <usb_serial.h>
   3:../src/main.cpp **** #include <PicturedNumericArea.h>
   4:../src/main.cpp **** #include <DataStack.h>
   5:../src/main.cpp **** #include <System.h>
   6:../src/main.cpp **** 
   7:../src/main.cpp **** extern "C" void forth_do_colon(void);
   8:../src/main.cpp **** extern "C" uint32_t forth_testing;
   9:../src/main.cpp **** extern "C" uint32_t* forth_enter(uint32_t* param_stack, uint32_t* forth_word);
  10:../src/main.cpp **** 
  11:../src/main.cpp **** typedef struct {
  12:../src/main.cpp ****     const char *name;
  13:../src/main.cpp ****     void (*fn)();
  14:../src/main.cpp **** } fndef;
  15:../src/main.cpp **** 
  16:../src/main.cpp **** fndef defs[] = {
  17:../src/main.cpp ****         {"+", forth::System::Add},
  18:../src/main.cpp ****         {"!", forth::System::Store},
  19:../src/main.cpp ****         {nullptr, nullptr}
  20:../src/main.cpp **** };
  21:../src/main.cpp **** 
  22:../src/main.cpp **** bool parse_hex(char *buff) {
  29              		.loc 1 22 0
  30              		.cfi_startproc
  31              		@ args = 0, pretend = 0, frame = 0
  32              		@ frame_needed = 0, uses_anonymous_args = 0
  33              		@ link register save eliminated.
  34              	.LVL0:
  35 0000 30B4     		push	{r4, r5}
  36              		.cfi_def_cfa_offset 8
  37              		.cfi_offset 4, -8
  38              		.cfi_offset 5, -4
  23:../src/main.cpp ****     uint32_t num = 0;
  24:../src/main.cpp ****     char *ptr = buff;
  25:../src/main.cpp ****     while (*ptr) {
  39              		.loc 1 25 0
  40 0002 90F90030 		ldrsb	r3, [r0]
  41 0006 7BB3     		cbz	r3, .L10
  42 0008 0021     		movs	r1, #0
  43 000a 04E0     		b	.L9
  44              	.LVL1:
  45              	.L16:
  26:../src/main.cpp ****         if (*ptr >= '0' && *ptr <= '9') {
  27:../src/main.cpp ****             num = num * 16 + (*ptr - '0');
  46              		.loc 1 27 0
  47 000c A4F13001 		sub	r1, r4, #48
  48              	.LVL2:
  49              	.L4:
  25:../src/main.cpp ****         if (*ptr >= '0' && *ptr <= '9') {
  50              		.loc 1 25 0
  51 0010 10F9013F 		ldrsb	r3, [r0, #1]!
  52              	.LVL3:
  53 0014 A3B1     		cbz	r3, .L2
  54              	.LVL4:
  55              	.L9:
  26:../src/main.cpp ****         if (*ptr >= '0' && *ptr <= '9') {
  56              		.loc 1 26 0
  57 0016 DAB2     		uxtb	r2, r3
  58 0018 A2F13004 		sub	r4, r2, #48
  59 001c 092C     		cmp	r4, #9
  28:../src/main.cpp ****         } else if (*ptr >= 'a' && *ptr <= 'f') {
  60              		.loc 1 28 0
  61 001e A2F16105 		sub	r5, r2, #97
  27:../src/main.cpp ****         } else if (*ptr >= 'a' && *ptr <= 'f') {
  62              		.loc 1 27 0
  63 0022 03EB0114 		add	r4, r3, r1, lsl #4
  26:../src/main.cpp ****             num = num * 16 + (*ptr - '0');
  64              		.loc 1 26 0
  65 0026 F1D9     		bls	.L16
  66              		.loc 1 28 0
  67 0028 052D     		cmp	r5, #5
  29:../src/main.cpp ****             num = num * 16 + 10 + (*ptr - 'a');
  30:../src/main.cpp ****         } else if (*ptr >= 'A' && *ptr <= 'F') {
  68              		.loc 1 30 0
  69 002a A2F14102 		sub	r2, r2, #65
  29:../src/main.cpp ****             num = num * 16 + 10 + (*ptr - 'a');
  70              		.loc 1 29 0
  71 002e 03EB0114 		add	r4, r3, r1, lsl #4
  28:../src/main.cpp ****             num = num * 16 + 10 + (*ptr - 'a');
  72              		.loc 1 28 0
  73 0032 0DD8     		bhi	.L5
  25:../src/main.cpp ****         if (*ptr >= '0' && *ptr <= '9') {
  74              		.loc 1 25 0
  75 0034 10F9013F 		ldrsb	r3, [r0, #1]!
  76              	.LVL5:
  29:../src/main.cpp ****             num = num * 16 + 10 + (*ptr - 'a');
  77              		.loc 1 29 0
  78 0038 A4F15701 		sub	r1, r4, #87
  79              	.LVL6:
  25:../src/main.cpp ****         if (*ptr >= '0' && *ptr <= '9') {
  80              		.loc 1 25 0
  81 003c 002B     		cmp	r3, #0
  82 003e EAD1     		bne	.L9
  83              	.LVL7:
  84              	.L2:
  85              	.LBB49:
  86              	.LBB50:
  87              	.LBB51:
  88              		.file 2 "F:\\kalkulyator-workspace-v2\\PixieForth\\src/DataStack.h"
   1:F:\kalkulyator-workspace-v2\PixieForth\src\DataStack.h **** /*
   2:F:\kalkulyator-workspace-v2\PixieForth\src\DataStack.h ****  * DataStack.h
   3:F:\kalkulyator-workspace-v2\PixieForth\src\DataStack.h ****  *
   4:F:\kalkulyator-workspace-v2\PixieForth\src\DataStack.h ****  *  Created on: Oct 30, 2016
   5:F:\kalkulyator-workspace-v2\PixieForth\src\DataStack.h ****  *      Author: Robert
   6:F:\kalkulyator-workspace-v2\PixieForth\src\DataStack.h ****  */
   7:F:\kalkulyator-workspace-v2\PixieForth\src\DataStack.h **** 
   8:F:\kalkulyator-workspace-v2\PixieForth\src\DataStack.h **** #ifndef SRC_DATASTACK_H_
   9:F:\kalkulyator-workspace-v2\PixieForth\src\DataStack.h **** #define SRC_DATASTACK_H_
  10:F:\kalkulyator-workspace-v2\PixieForth\src\DataStack.h **** 
  11:F:\kalkulyator-workspace-v2\PixieForth\src\DataStack.h **** #include <cstdint>
  12:F:\kalkulyator-workspace-v2\PixieForth\src\DataStack.h **** 
  13:F:\kalkulyator-workspace-v2\PixieForth\src\DataStack.h **** namespace forth {
  14:F:\kalkulyator-workspace-v2\PixieForth\src\DataStack.h **** 
  15:F:\kalkulyator-workspace-v2\PixieForth\src\DataStack.h **** class DataStack {
  16:F:\kalkulyator-workspace-v2\PixieForth\src\DataStack.h **** private:
  17:F:\kalkulyator-workspace-v2\PixieForth\src\DataStack.h ****     static constexpr int stack_size_ = 1024;
  18:F:\kalkulyator-workspace-v2\PixieForth\src\DataStack.h ****     static std::uint32_t *sp_;
  19:F:\kalkulyator-workspace-v2\PixieForth\src\DataStack.h ****     static std::uint32_t data_stack_[stack_size_];
  20:F:\kalkulyator-workspace-v2\PixieForth\src\DataStack.h **** 
  21:F:\kalkulyator-workspace-v2\PixieForth\src\DataStack.h ****     DataStack() { Reset(); }
  22:F:\kalkulyator-workspace-v2\PixieForth\src\DataStack.h **** 
  23:F:\kalkulyator-workspace-v2\PixieForth\src\DataStack.h **** public:
  24:F:\kalkulyator-workspace-v2\PixieForth\src\DataStack.h ****     static DataStack& instance();
  25:F:\kalkulyator-workspace-v2\PixieForth\src\DataStack.h **** 
  26:F:\kalkulyator-workspace-v2\PixieForth\src\DataStack.h ****     void Reset() { sp_ = data_stack_; }
  27:F:\kalkulyator-workspace-v2\PixieForth\src\DataStack.h ****     std::uint32_t **GetSPPtr() { return &sp_; }
  28:F:\kalkulyator-workspace-v2\PixieForth\src\DataStack.h ****     void Push(std::uint32_t val) { *sp_++ = val; }
  89              		.loc 2 28 0
  90 0040 0A4A     		ldr	r2, .L17
  91 0042 1368     		ldr	r3, [r2]
  92 0044 181D     		adds	r0, r3, #4
  93 0046 1060     		str	r0, [r2]
  94              	.LBE51:
  95              	.LBE50:
  96              	.LBE49:
  31:../src/main.cpp ****             num = num * 16 + 10 + (*ptr - 'A');
  32:../src/main.cpp ****         } else {
  33:../src/main.cpp ****             while (*ptr) ptr++; // skip the rest, ambiguous condition
  34:../src/main.cpp ****             return false;
  35:../src/main.cpp ****         }
  36:../src/main.cpp ****         ptr++;
  37:../src/main.cpp ****     }
  38:../src/main.cpp ****     forth::System::Push(num);
  39:../src/main.cpp ****     return true;
  40:../src/main.cpp **** }
  97              		.loc 1 40 0
  98 0048 30BC     		pop	{r4, r5}
  99              		.cfi_remember_state
 100              		.cfi_restore 5
 101              		.cfi_restore 4
 102              		.cfi_def_cfa_offset 0
  39:../src/main.cpp **** }
 103              		.loc 1 39 0
 104 004a 0120     		movs	r0, #1
 105              	.LBB54:
 106              	.LBB53:
 107              	.LBB52:
 108              		.loc 2 28 0
 109 004c 1960     		str	r1, [r3]
 110              	.LVL8:
 111              	.LBE52:
 112              	.LBE53:
 113              	.LBE54:
 114              		.loc 1 40 0
 115 004e 7047     		bx	lr
 116              	.LVL9:
 117              	.L5:
 118              		.cfi_restore_state
  30:../src/main.cpp ****             num = num * 16 + 10 + (*ptr - 'A');
 119              		.loc 1 30 0
 120 0050 052A     		cmp	r2, #5
 121 0052 02D8     		bhi	.L8
  31:../src/main.cpp ****             num = num * 16 + 10 + (*ptr - 'A');
 122              		.loc 1 31 0
 123 0054 A4F13701 		sub	r1, r4, #55
 124              	.LVL10:
 125 0058 DAE7     		b	.L4
 126              	.LVL11:
 127              	.L8:
  33:../src/main.cpp ****             return false;
 128              		.loc 1 33 0 discriminator 1
 129 005a 10F9013F 		ldrsb	r3, [r0, #1]!
 130              	.LVL12:
 131 005e 002B     		cmp	r3, #0
 132 0060 FBD1     		bne	.L8
  34:../src/main.cpp ****         }
 133              		.loc 1 34 0
 134 0062 1846     		mov	r0, r3
 135              	.LVL13:
 136              		.loc 1 40 0
 137 0064 30BC     		pop	{r4, r5}
 138              		.cfi_remember_state
 139              		.cfi_restore 4
 140              		.cfi_restore 5
 141              		.cfi_def_cfa_offset 0
 142 0066 7047     		bx	lr
 143              	.LVL14:
 144              	.L10:
 145              		.cfi_restore_state
  23:../src/main.cpp ****     char *ptr = buff;
 146              		.loc 1 23 0
 147 0068 1946     		mov	r1, r3
 148 006a E9E7     		b	.L2
 149              	.L18:
 150              		.align	2
 151              	.L17:
 152 006c 00000000 		.word	_ZN5forth9DataStack3sp_E
 153              		.cfi_endproc
 154              	.LFE479:
 155              		.cantunwind
 156              		.fnend
 158              		.section	.text._Z9parse_decPc,"ax",%progbits
 159              		.align	2
 160              		.global	_Z9parse_decPc
 161              		.thumb
 162              		.thumb_func
 164              	_Z9parse_decPc:
 165              		.fnstart
 166              	.LFB480:
  41:../src/main.cpp **** 
  42:../src/main.cpp **** bool parse_dec(char *buff) {
 167              		.loc 1 42 0
 168              		.cfi_startproc
 169              		@ args = 0, pretend = 0, frame = 0
 170              		@ frame_needed = 0, uses_anonymous_args = 0
 171              		@ link register save eliminated.
 172              	.LVL15:
  43:../src/main.cpp ****     uint32_t num = 0;
  44:../src/main.cpp ****     char *ptr = buff;
  45:../src/main.cpp ****     while (*ptr) {
 173              		.loc 1 45 0
 174 0000 90F90020 		ldrsb	r2, [r0]
 175 0004 12B3     		cbz	r2, .L27
  46:../src/main.cpp ****         if (*ptr >= '0' && *ptr <= '9') {
 176              		.loc 1 46 0
 177 0006 A2F13003 		sub	r3, r2, #48
 178 000a DBB2     		uxtb	r3, r3
 179 000c 092B     		cmp	r3, #9
 180 000e 98BF     		it	ls
 181 0010 0023     		movls	r3, #0
 182 0012 02D9     		bls	.L23
 183 0014 14E0     		b	.L26
 184              	.LVL16:
 185              	.L33:
 186 0016 0929     		cmp	r1, #9
 187 0018 12D8     		bhi	.L26
 188              	.LVL17:
 189              	.L23:
  47:../src/main.cpp ****             num = num * 10 + (*ptr - '0');
 190              		.loc 1 47 0
 191 001a 03EB8303 		add	r3, r3, r3, lsl #2
 192              	.LVL18:
 193 001e 02EB4303 		add	r3, r2, r3, lsl #1
  45:../src/main.cpp ****         if (*ptr >= '0' && *ptr <= '9') {
 194              		.loc 1 45 0
 195 0022 10F9012F 		ldrsb	r2, [r0, #1]!
 196              	.LVL19:
  46:../src/main.cpp ****         if (*ptr >= '0' && *ptr <= '9') {
 197              		.loc 1 46 0
 198 0026 A2F13001 		sub	r1, r2, #48
 199 002a C9B2     		uxtb	r1, r1
 200              		.loc 1 47 0
 201 002c 303B     		subs	r3, r3, #48
 202              	.LVL20:
  45:../src/main.cpp ****         if (*ptr >= '0' && *ptr <= '9') {
 203              		.loc 1 45 0
 204 002e 002A     		cmp	r2, #0
 205 0030 F1D1     		bne	.L33
 206              	.LVL21:
 207              	.L20:
 208              	.LBB58:
 209              	.LBB59:
 210              	.LBB60:
 211              		.loc 2 28 0
 212 0032 0749     		ldr	r1, .L36
 213 0034 0A68     		ldr	r2, [r1]
 214 0036 101D     		adds	r0, r2, #4
 215 0038 0860     		str	r0, [r1]
 216              	.LBE60:
 217              	.LBE59:
 218              	.LBE58:
  48:../src/main.cpp ****         } else {
  49:../src/main.cpp ****             while (*ptr) ptr++; // skip the rest, ambiguous condition
  50:../src/main.cpp ****             return false;
  51:../src/main.cpp ****         }
  52:../src/main.cpp ****         ptr++;
  53:../src/main.cpp ****     }
  54:../src/main.cpp ****     forth::System::Push(num);
  55:../src/main.cpp ****     return true;
 219              		.loc 1 55 0
 220 003a 0120     		movs	r0, #1
 221              	.LBB63:
 222              	.LBB62:
 223              	.LBB61:
 224              		.loc 2 28 0
 225 003c 1360     		str	r3, [r2]
 226              	.LVL22:
 227              	.LBE61:
 228              	.LBE62:
 229              	.LBE63:
 230              		.loc 1 55 0
 231 003e 7047     		bx	lr
 232              	.L26:
 233              	.LVL23:
  49:../src/main.cpp ****             return false;
 234              		.loc 1 49 0 discriminator 1
 235 0040 10F9013F 		ldrsb	r3, [r0, #1]!
 236              	.LVL24:
 237 0044 002B     		cmp	r3, #0
 238 0046 FBD1     		bne	.L26
  50:../src/main.cpp ****         }
 239              		.loc 1 50 0
 240 0048 1846     		mov	r0, r3
 241              	.LVL25:
  56:../src/main.cpp **** }
 242              		.loc 1 56 0
 243 004a 7047     		bx	lr
 244              	.LVL26:
 245              	.L27:
  43:../src/main.cpp ****     char *ptr = buff;
 246              		.loc 1 43 0
 247 004c 1346     		mov	r3, r2
 248 004e F0E7     		b	.L20
 249              	.L37:
 250              		.align	2
 251              	.L36:
 252 0050 00000000 		.word	_ZN5forth9DataStack3sp_E
 253              		.cfi_endproc
 254              	.LFE480:
 255              		.cantunwind
 256              		.fnend
 258              		.section	.text._Z13parse_neg_decPc,"ax",%progbits
 259              		.align	2
 260              		.global	_Z13parse_neg_decPc
 261              		.thumb
 262              		.thumb_func
 264              	_Z13parse_neg_decPc:
 265              		.fnstart
 266              	.LFB481:
  57:../src/main.cpp **** 
  58:../src/main.cpp **** bool parse_neg_dec(char *buff) {
 267              		.loc 1 58 0
 268              		.cfi_startproc
 269              		@ args = 0, pretend = 0, frame = 0
 270              		@ frame_needed = 0, uses_anonymous_args = 0
 271              	.LVL27:
 272 0000 10B5     		push	{r4, lr}
 273              		.save {r4, lr}
 274              		.cfi_def_cfa_offset 8
 275              		.cfi_offset 4, -8
 276              		.cfi_offset 14, -4
 277              	.LBB77:
 278              	.LBB78:
  45:../src/main.cpp ****         if (*ptr >= '0' && *ptr <= '9') {
 279              		.loc 1 45 0
 280 0002 90F90020 		ldrsb	r2, [r0]
 281 0006 4AB3     		cbz	r2, .L46
  46:../src/main.cpp ****             num = num * 10 + (*ptr - '0');
 282              		.loc 1 46 0
 283 0008 A2F13003 		sub	r3, r2, #48
 284 000c DBB2     		uxtb	r3, r3
 285 000e 092B     		cmp	r3, #9
 286 0010 98BF     		it	ls
 287 0012 0023     		movls	r3, #0
 288 0014 02D9     		bls	.L42
 289 0016 1BE0     		b	.L45
 290              	.LVL28:
 291              	.L52:
 292 0018 0929     		cmp	r1, #9
 293 001a 19D8     		bhi	.L45
 294              	.LVL29:
 295              	.L42:
  47:../src/main.cpp ****         } else {
 296              		.loc 1 47 0
 297 001c 03EB8303 		add	r3, r3, r3, lsl #2
 298              	.LVL30:
 299 0020 02EB4303 		add	r3, r2, r3, lsl #1
  45:../src/main.cpp ****         if (*ptr >= '0' && *ptr <= '9') {
 300              		.loc 1 45 0
 301 0024 10F9012F 		ldrsb	r2, [r0, #1]!
  46:../src/main.cpp ****             num = num * 10 + (*ptr - '0');
 302              		.loc 1 46 0
 303 0028 A2F13001 		sub	r1, r2, #48
 304 002c C9B2     		uxtb	r1, r1
  47:../src/main.cpp ****         } else {
 305              		.loc 1 47 0
 306 002e 303B     		subs	r3, r3, #48
 307              	.LVL31:
  45:../src/main.cpp ****         if (*ptr >= '0' && *ptr <= '9') {
 308              		.loc 1 45 0
 309 0030 002A     		cmp	r2, #0
 310 0032 F1D1     		bne	.L52
 311              	.LVL32:
 312              	.L39:
 313              	.LBB79:
 314              	.LBB80:
 315              	.LBB81:
 316              		.loc 2 28 0
 317 0034 0A4C     		ldr	r4, .L56
 318 0036 2268     		ldr	r2, [r4]
 319 0038 111D     		adds	r1, r2, #4
 320 003a 2160     		str	r1, [r4]
 321 003c 1360     		str	r3, [r2]
 322              	.LVL33:
 323              	.LBE81:
 324              	.LBE80:
 325              	.LBE79:
 326              	.LBE78:
 327              	.LBE77:
 328              	.LBB84:
 329              	.LBB85:
  59:../src/main.cpp ****     if (parse_dec(buff)) {
  60:../src/main.cpp ****         int32_t num = (int32_t) forth::System::Pop();
 330              		.loc 1 60 0
 331 003e FFF7FEFF 		bl	_ZN5forth6System3PopEv
 332              	.LVL34:
 333              	.LBB86:
 334              	.LBB87:
 335              	.LBB88:
 336              		.loc 2 28 0
 337 0042 2368     		ldr	r3, [r4]
 338 0044 4242     		negs	r2, r0
 339              	.LVL35:
 340 0046 191D     		adds	r1, r3, #4
 341 0048 2160     		str	r1, [r4]
 342 004a 0120     		movs	r0, #1
 343              	.LVL36:
 344 004c 1A60     		str	r2, [r3]
 345              	.LVL37:
 346 004e 10BD     		pop	{r4, pc}
 347              	.L45:
 348              	.LVL38:
 349              	.LBE88:
 350              	.LBE87:
 351              	.LBE86:
 352              	.LBE85:
 353              	.LBE84:
 354              	.LBB89:
 355              	.LBB82:
  49:../src/main.cpp ****             return false;
 356              		.loc 1 49 0
 357 0050 10F9013F 		ldrsb	r3, [r0, #1]!
 358              	.LVL39:
 359 0054 002B     		cmp	r3, #0
 360 0056 FBD1     		bne	.L45
 361              	.LBE82:
 362              	.LBE89:
  61:../src/main.cpp ****         forth::System::Push(-num);
  62:../src/main.cpp ****         return true;
  63:../src/main.cpp ****     }
  64:../src/main.cpp ****     return false;
 363              		.loc 1 64 0
 364 0058 1846     		mov	r0, r3
 365              	.LVL40:
  65:../src/main.cpp **** }
 366              		.loc 1 65 0
 367 005a 10BD     		pop	{r4, pc}
 368              	.LVL41:
 369              	.L46:
 370              	.LBB90:
 371              	.LBB83:
  43:../src/main.cpp ****     char *ptr = buff;
 372              		.loc 1 43 0
 373 005c 1346     		mov	r3, r2
 374 005e E9E7     		b	.L39
 375              	.L57:
 376              		.align	2
 377              	.L56:
 378 0060 00000000 		.word	_ZN5forth9DataStack3sp_E
 379              	.LBE83:
 380              	.LBE90:
 381              		.cfi_endproc
 382              	.LFE481:
 383              		.fnend
 385              		.section	.text._Z6parse2Pci,"ax",%progbits
 386              		.align	2
 387              		.global	_Z6parse2Pci
 388              		.thumb
 389              		.thumb_func
 391              	_Z6parse2Pci:
 392              		.fnstart
 393              	.LFB482:
  66:../src/main.cpp **** 
  67:../src/main.cpp **** bool parse2(char *buff, int len) {
 394              		.loc 1 67 0
 395              		.cfi_startproc
 396              		@ args = 0, pretend = 0, frame = 0
 397              		@ frame_needed = 0, uses_anonymous_args = 0
 398              	.LVL42:
 399 0000 2DE9F041 		push	{r4, r5, r6, r7, r8, lr}
 400              		.save {r4, r5, r6, r7, r8, lr}
 401              		.cfi_def_cfa_offset 24
 402              		.cfi_offset 4, -24
 403              		.cfi_offset 5, -20
 404              		.cfi_offset 6, -16
 405              		.cfi_offset 7, -12
 406              		.cfi_offset 8, -8
 407              		.cfi_offset 14, -4
  68:../src/main.cpp ****     if (len <= 0) return true;
 408              		.loc 1 68 0
 409 0004 0F1E     		subs	r7, r1, #0
 410 0006 6EDD     		ble	.L131
  69:../src/main.cpp **** 
  70:../src/main.cpp ****     char *start = buff;
  71:../src/main.cpp ****     while (*start == ' ') start++;
  72:../src/main.cpp **** 
  73:../src/main.cpp ****     char *end = start;
  74:../src/main.cpp ****     while (*end && *end != ' ') end++;
  75:../src/main.cpp ****     *end = 0;
  76:../src/main.cpp ****     if (start == end) return true;
  77:../src/main.cpp ****     len -= end - buff + 1;
  78:../src/main.cpp ****     buff = end + 1;
  79:../src/main.cpp ****     Serial.print("parse: ");
  80:../src/main.cpp ****     Serial.println(start);
  81:../src/main.cpp **** 
  82:../src/main.cpp ****     fndef *defptr = defs;
  83:../src/main.cpp ****     while (defptr->name != nullptr) {
 411              		.loc 1 83 0 discriminator 2
 412 0008 DFF8E481 		ldr	r8, .L139+12
 413 000c 0646     		mov	r6, r0
 414              	.LVL43:
 415              	.L61:
  71:../src/main.cpp **** 
 416              		.loc 1 71 0 discriminator 2
 417 000e 96F90030 		ldrsb	r3, [r6]
 418 0012 202B     		cmp	r3, #32
 419 0014 3446     		mov	r4, r6
 420 0016 03D1     		bne	.L65
 421              	.LVL44:
 422              	.L66:
  71:../src/main.cpp **** 
 423              		.loc 1 71 0 is_stmt 0 discriminator 1
 424 0018 14F9013F 		ldrsb	r3, [r4, #1]!
 425              	.LVL45:
 426 001c 202B     		cmp	r3, #32
 427 001e FBD0     		beq	.L66
 428              	.LVL46:
 429              	.L65:
  74:../src/main.cpp ****     *end = 0;
 430              		.loc 1 74 0 is_stmt 1 discriminator 3
 431 0020 33F02003 		bics	r3, r3, #32
 432 0024 00F09F80 		beq	.L63
  74:../src/main.cpp ****     *end = 0;
 433              		.loc 1 74 0 is_stmt 0
 434 0028 2246     		mov	r2, r4
 435              	.LVL47:
 436              	.L67:
  74:../src/main.cpp ****     *end = 0;
 437              		.loc 1 74 0 discriminator 2
 438 002a 12F9013F 		ldrsb	r3, [r2, #1]!
 439              	.LVL48:
 440 002e 33F02003 		bics	r3, r3, #32
 441 0032 FAD1     		bne	.L67
  76:../src/main.cpp ****     len -= end - buff + 1;
 442              		.loc 1 76 0 is_stmt 1
 443 0034 A242     		cmp	r2, r4
  75:../src/main.cpp ****     if (start == end) return true;
 444              		.loc 1 75 0
 445 0036 1370     		strb	r3, [r2]
  76:../src/main.cpp ****     len -= end - buff + 1;
 446              		.loc 1 76 0
 447 0038 55D0     		beq	.L131
  77:../src/main.cpp ****     buff = end + 1;
 448              		.loc 1 77 0
 449 003a 931B     		subs	r3, r2, r6
 450 003c 0133     		adds	r3, r3, #1
 451              	.LBB131:
 452              	.LBB132:
 453              	.LBB133:
 454              	.LBB134:
 455              		.file 3 "F:\\kalkulyator-workspace-v2\\TeensyCore3\\src/usb_serial.h"
   1:F:\kalkulyator-workspace-v2\TeensyCore3\src\usb_serial.h **** /* Teensyduino Core Library
   2:F:\kalkulyator-workspace-v2\TeensyCore3\src\usb_serial.h ****  * http://www.pjrc.com/teensy/
   3:F:\kalkulyator-workspace-v2\TeensyCore3\src\usb_serial.h ****  * Copyright (c) 2013 PJRC.COM, LLC.
   4:F:\kalkulyator-workspace-v2\TeensyCore3\src\usb_serial.h ****  *
   5:F:\kalkulyator-workspace-v2\TeensyCore3\src\usb_serial.h ****  * Permission is hereby granted, free of charge, to any person obtaining
   6:F:\kalkulyator-workspace-v2\TeensyCore3\src\usb_serial.h ****  * a copy of this software and associated documentation files (the
   7:F:\kalkulyator-workspace-v2\TeensyCore3\src\usb_serial.h ****  * "Software"), to deal in the Software without restriction, including
   8:F:\kalkulyator-workspace-v2\TeensyCore3\src\usb_serial.h ****  * without limitation the rights to use, copy, modify, merge, publish,
   9:F:\kalkulyator-workspace-v2\TeensyCore3\src\usb_serial.h ****  * distribute, sublicense, and/or sell copies of the Software, and to
  10:F:\kalkulyator-workspace-v2\TeensyCore3\src\usb_serial.h ****  * permit persons to whom the Software is furnished to do so, subject to
  11:F:\kalkulyator-workspace-v2\TeensyCore3\src\usb_serial.h ****  * the following conditions:
  12:F:\kalkulyator-workspace-v2\TeensyCore3\src\usb_serial.h ****  *
  13:F:\kalkulyator-workspace-v2\TeensyCore3\src\usb_serial.h ****  * 1. The above copyright notice and this permission notice shall be
  14:F:\kalkulyator-workspace-v2\TeensyCore3\src\usb_serial.h ****  * included in all copies or substantial portions of the Software.
  15:F:\kalkulyator-workspace-v2\TeensyCore3\src\usb_serial.h ****  *
  16:F:\kalkulyator-workspace-v2\TeensyCore3\src\usb_serial.h ****  * 2. If the Software is incorporated into a build system that allows
  17:F:\kalkulyator-workspace-v2\TeensyCore3\src\usb_serial.h ****  * selection among a list of target devices, then similar target
  18:F:\kalkulyator-workspace-v2\TeensyCore3\src\usb_serial.h ****  * devices manufactured by PJRC.COM must be included in the list of
  19:F:\kalkulyator-workspace-v2\TeensyCore3\src\usb_serial.h ****  * target devices and selectable in the same manner.
  20:F:\kalkulyator-workspace-v2\TeensyCore3\src\usb_serial.h ****  *
  21:F:\kalkulyator-workspace-v2\TeensyCore3\src\usb_serial.h ****  * THE SOFTWARE IS PROVIDED "AS IS", WITHOUT WARRANTY OF ANY KIND,
  22:F:\kalkulyator-workspace-v2\TeensyCore3\src\usb_serial.h ****  * EXPRESS OR IMPLIED, INCLUDING BUT NOT LIMITED TO THE WARRANTIES OF
  23:F:\kalkulyator-workspace-v2\TeensyCore3\src\usb_serial.h ****  * MERCHANTABILITY, FITNESS FOR A PARTICULAR PURPOSE AND
  24:F:\kalkulyator-workspace-v2\TeensyCore3\src\usb_serial.h ****  * NONINFRINGEMENT. IN NO EVENT SHALL THE AUTHORS OR COPYRIGHT HOLDERS
  25:F:\kalkulyator-workspace-v2\TeensyCore3\src\usb_serial.h ****  * BE LIABLE FOR ANY CLAIM, DAMAGES OR OTHER LIABILITY, WHETHER IN AN
  26:F:\kalkulyator-workspace-v2\TeensyCore3\src\usb_serial.h ****  * ACTION OF CONTRACT, TORT OR OTHERWISE, ARISING FROM, OUT OF OR IN
  27:F:\kalkulyator-workspace-v2\TeensyCore3\src\usb_serial.h ****  * CONNECTION WITH THE SOFTWARE OR THE USE OR OTHER DEALINGS IN THE
  28:F:\kalkulyator-workspace-v2\TeensyCore3\src\usb_serial.h ****  * SOFTWARE.
  29:F:\kalkulyator-workspace-v2\TeensyCore3\src\usb_serial.h ****  */
  30:F:\kalkulyator-workspace-v2\TeensyCore3\src\usb_serial.h **** 
  31:F:\kalkulyator-workspace-v2\TeensyCore3\src\usb_serial.h **** #ifndef USBserial_h_
  32:F:\kalkulyator-workspace-v2\TeensyCore3\src\usb_serial.h **** #define USBserial_h_
  33:F:\kalkulyator-workspace-v2\TeensyCore3\src\usb_serial.h **** 
  34:F:\kalkulyator-workspace-v2\TeensyCore3\src\usb_serial.h **** #include "usb_desc.h"
  35:F:\kalkulyator-workspace-v2\TeensyCore3\src\usb_serial.h **** 
  36:F:\kalkulyator-workspace-v2\TeensyCore3\src\usb_serial.h **** #if (defined(CDC_STATUS_INTERFACE) && defined(CDC_DATA_INTERFACE)) || defined(USB_DISABLED)
  37:F:\kalkulyator-workspace-v2\TeensyCore3\src\usb_serial.h **** 
  38:F:\kalkulyator-workspace-v2\TeensyCore3\src\usb_serial.h **** #include <inttypes.h>
  39:F:\kalkulyator-workspace-v2\TeensyCore3\src\usb_serial.h **** 
  40:F:\kalkulyator-workspace-v2\TeensyCore3\src\usb_serial.h **** #if F_CPU >= 20000000 && !defined(USB_DISABLED)
  41:F:\kalkulyator-workspace-v2\TeensyCore3\src\usb_serial.h **** 
  42:F:\kalkulyator-workspace-v2\TeensyCore3\src\usb_serial.h **** // C language implementation
  43:F:\kalkulyator-workspace-v2\TeensyCore3\src\usb_serial.h **** #ifdef __cplusplus
  44:F:\kalkulyator-workspace-v2\TeensyCore3\src\usb_serial.h **** extern "C" {
  45:F:\kalkulyator-workspace-v2\TeensyCore3\src\usb_serial.h **** #endif
  46:F:\kalkulyator-workspace-v2\TeensyCore3\src\usb_serial.h **** int usb_serial_getchar(void);
  47:F:\kalkulyator-workspace-v2\TeensyCore3\src\usb_serial.h **** int usb_serial_peekchar(void);
  48:F:\kalkulyator-workspace-v2\TeensyCore3\src\usb_serial.h **** int usb_serial_available(void);
  49:F:\kalkulyator-workspace-v2\TeensyCore3\src\usb_serial.h **** int usb_serial_read(void *buffer, uint32_t size);
  50:F:\kalkulyator-workspace-v2\TeensyCore3\src\usb_serial.h **** void usb_serial_flush_input(void);
  51:F:\kalkulyator-workspace-v2\TeensyCore3\src\usb_serial.h **** int usb_serial_putchar(uint8_t c);
  52:F:\kalkulyator-workspace-v2\TeensyCore3\src\usb_serial.h **** int usb_serial_write(const void *buffer, uint32_t size);
  53:F:\kalkulyator-workspace-v2\TeensyCore3\src\usb_serial.h **** int usb_serial_write_buffer_free(void);
  54:F:\kalkulyator-workspace-v2\TeensyCore3\src\usb_serial.h **** void usb_serial_flush_output(void);
  55:F:\kalkulyator-workspace-v2\TeensyCore3\src\usb_serial.h **** extern uint32_t usb_cdc_line_coding[2];
  56:F:\kalkulyator-workspace-v2\TeensyCore3\src\usb_serial.h **** extern volatile uint32_t usb_cdc_line_rtsdtr_millis;
  57:F:\kalkulyator-workspace-v2\TeensyCore3\src\usb_serial.h **** extern volatile uint32_t systick_millis_count;
  58:F:\kalkulyator-workspace-v2\TeensyCore3\src\usb_serial.h **** extern volatile uint8_t usb_cdc_line_rtsdtr;
  59:F:\kalkulyator-workspace-v2\TeensyCore3\src\usb_serial.h **** extern volatile uint8_t usb_cdc_transmit_flush_timer;
  60:F:\kalkulyator-workspace-v2\TeensyCore3\src\usb_serial.h **** extern volatile uint8_t usb_configuration;
  61:F:\kalkulyator-workspace-v2\TeensyCore3\src\usb_serial.h **** #ifdef __cplusplus
  62:F:\kalkulyator-workspace-v2\TeensyCore3\src\usb_serial.h **** }
  63:F:\kalkulyator-workspace-v2\TeensyCore3\src\usb_serial.h **** #endif
  64:F:\kalkulyator-workspace-v2\TeensyCore3\src\usb_serial.h **** 
  65:F:\kalkulyator-workspace-v2\TeensyCore3\src\usb_serial.h **** #define USB_SERIAL_DTR  0x01
  66:F:\kalkulyator-workspace-v2\TeensyCore3\src\usb_serial.h **** #define USB_SERIAL_RTS  0x02
  67:F:\kalkulyator-workspace-v2\TeensyCore3\src\usb_serial.h **** 
  68:F:\kalkulyator-workspace-v2\TeensyCore3\src\usb_serial.h **** // C++ interface
  69:F:\kalkulyator-workspace-v2\TeensyCore3\src\usb_serial.h **** #ifdef __cplusplus
  70:F:\kalkulyator-workspace-v2\TeensyCore3\src\usb_serial.h **** #include "Stream.h"
  71:F:\kalkulyator-workspace-v2\TeensyCore3\src\usb_serial.h **** class usb_serial_class : public Stream
  72:F:\kalkulyator-workspace-v2\TeensyCore3\src\usb_serial.h **** {
  73:F:\kalkulyator-workspace-v2\TeensyCore3\src\usb_serial.h **** public:
  74:F:\kalkulyator-workspace-v2\TeensyCore3\src\usb_serial.h ****         void begin(long) { /* TODO: call a function that tries to wait for enumeration */ };
  75:F:\kalkulyator-workspace-v2\TeensyCore3\src\usb_serial.h ****         void end() { /* TODO: flush output and shut down USB port */ };
  76:F:\kalkulyator-workspace-v2\TeensyCore3\src\usb_serial.h ****         virtual int available() { return usb_serial_available(); }
  77:F:\kalkulyator-workspace-v2\TeensyCore3\src\usb_serial.h ****         virtual int read() { return usb_serial_getchar(); }
  78:F:\kalkulyator-workspace-v2\TeensyCore3\src\usb_serial.h ****         virtual int peek() { return usb_serial_peekchar(); }
  79:F:\kalkulyator-workspace-v2\TeensyCore3\src\usb_serial.h ****         virtual void flush() { usb_serial_flush_output(); }  // TODO: actually wait for data to lea
  80:F:\kalkulyator-workspace-v2\TeensyCore3\src\usb_serial.h ****         virtual void clear(void) { usb_serial_flush_input(); }
  81:F:\kalkulyator-workspace-v2\TeensyCore3\src\usb_serial.h ****         virtual size_t write(uint8_t c) { return usb_serial_putchar(c); }
  82:F:\kalkulyator-workspace-v2\TeensyCore3\src\usb_serial.h ****         virtual size_t write(const uint8_t *buffer, size_t size) { return usb_serial_write(buffer, 
 456              		.loc 3 82 0
 457 003e 0721     		movs	r1, #7
 458 0040 6848     		ldr	r0, .L139
 459              	.LBE134:
 460              	.LBE133:
 461              	.LBE132:
 462              	.LBE131:
  77:../src/main.cpp ****     buff = end + 1;
 463              		.loc 1 77 0
 464 0042 FF1A     		subs	r7, r7, r3
 465              	.LVL49:
  78:../src/main.cpp ****     Serial.print("parse: ");
 466              		.loc 1 78 0
 467 0044 561C     		adds	r6, r2, #1
 468              	.LVL50:
 469              	.LBB138:
 470              	.LBB137:
 471              	.LBB136:
 472              	.LBB135:
 473              		.loc 3 82 0
 474 0046 FFF7FEFF 		bl	usb_serial_write
 475              	.LVL51:
 476              	.LBE135:
 477              	.LBE136:
 478              	.LBE137:
 479              	.LBE138:
 480              	.LBB139:
 481              	.LBB140:
 482              	.LBB141:
 483              	.LBB142:
 484              	.LBB143:
 485              		.file 4 "F:\\kalkulyator-workspace-v2\\TeensyCore3\\src/Print.h"
   1:F:\kalkulyator-workspace-v2\TeensyCore3\src\Print.h **** /* Teensyduino Core Library
   2:F:\kalkulyator-workspace-v2\TeensyCore3\src\Print.h ****  * http://www.pjrc.com/teensy/
   3:F:\kalkulyator-workspace-v2\TeensyCore3\src\Print.h ****  * Copyright (c) 2013 PJRC.COM, LLC.
   4:F:\kalkulyator-workspace-v2\TeensyCore3\src\Print.h ****  *
   5:F:\kalkulyator-workspace-v2\TeensyCore3\src\Print.h ****  * Permission is hereby granted, free of charge, to any person obtaining
   6:F:\kalkulyator-workspace-v2\TeensyCore3\src\Print.h ****  * a copy of this software and associated documentation files (the
   7:F:\kalkulyator-workspace-v2\TeensyCore3\src\Print.h ****  * "Software"), to deal in the Software without restriction, including
   8:F:\kalkulyator-workspace-v2\TeensyCore3\src\Print.h ****  * without limitation the rights to use, copy, modify, merge, publish,
   9:F:\kalkulyator-workspace-v2\TeensyCore3\src\Print.h ****  * distribute, sublicense, and/or sell copies of the Software, and to
  10:F:\kalkulyator-workspace-v2\TeensyCore3\src\Print.h ****  * permit persons to whom the Software is furnished to do so, subject to
  11:F:\kalkulyator-workspace-v2\TeensyCore3\src\Print.h ****  * the following conditions:
  12:F:\kalkulyator-workspace-v2\TeensyCore3\src\Print.h ****  *
  13:F:\kalkulyator-workspace-v2\TeensyCore3\src\Print.h ****  * 1. The above copyright notice and this permission notice shall be
  14:F:\kalkulyator-workspace-v2\TeensyCore3\src\Print.h ****  * included in all copies or substantial portions of the Software.
  15:F:\kalkulyator-workspace-v2\TeensyCore3\src\Print.h ****  *
  16:F:\kalkulyator-workspace-v2\TeensyCore3\src\Print.h ****  * 2. If the Software is incorporated into a build system that allows
  17:F:\kalkulyator-workspace-v2\TeensyCore3\src\Print.h ****  * selection among a list of target devices, then similar target
  18:F:\kalkulyator-workspace-v2\TeensyCore3\src\Print.h ****  * devices manufactured by PJRC.COM must be included in the list of
  19:F:\kalkulyator-workspace-v2\TeensyCore3\src\Print.h ****  * target devices and selectable in the same manner.
  20:F:\kalkulyator-workspace-v2\TeensyCore3\src\Print.h ****  *
  21:F:\kalkulyator-workspace-v2\TeensyCore3\src\Print.h ****  * THE SOFTWARE IS PROVIDED "AS IS", WITHOUT WARRANTY OF ANY KIND,
  22:F:\kalkulyator-workspace-v2\TeensyCore3\src\Print.h ****  * EXPRESS OR IMPLIED, INCLUDING BUT NOT LIMITED TO THE WARRANTIES OF
  23:F:\kalkulyator-workspace-v2\TeensyCore3\src\Print.h ****  * MERCHANTABILITY, FITNESS FOR A PARTICULAR PURPOSE AND
  24:F:\kalkulyator-workspace-v2\TeensyCore3\src\Print.h ****  * NONINFRINGEMENT. IN NO EVENT SHALL THE AUTHORS OR COPYRIGHT HOLDERS
  25:F:\kalkulyator-workspace-v2\TeensyCore3\src\Print.h ****  * BE LIABLE FOR ANY CLAIM, DAMAGES OR OTHER LIABILITY, WHETHER IN AN
  26:F:\kalkulyator-workspace-v2\TeensyCore3\src\Print.h ****  * ACTION OF CONTRACT, TORT OR OTHERWISE, ARISING FROM, OUT OF OR IN
  27:F:\kalkulyator-workspace-v2\TeensyCore3\src\Print.h ****  * CONNECTION WITH THE SOFTWARE OR THE USE OR OTHER DEALINGS IN THE
  28:F:\kalkulyator-workspace-v2\TeensyCore3\src\Print.h ****  * SOFTWARE.
  29:F:\kalkulyator-workspace-v2\TeensyCore3\src\Print.h ****  */
  30:F:\kalkulyator-workspace-v2\TeensyCore3\src\Print.h **** 
  31:F:\kalkulyator-workspace-v2\TeensyCore3\src\Print.h **** #ifndef Print_h
  32:F:\kalkulyator-workspace-v2\TeensyCore3\src\Print.h **** #define Print_h
  33:F:\kalkulyator-workspace-v2\TeensyCore3\src\Print.h **** 
  34:F:\kalkulyator-workspace-v2\TeensyCore3\src\Print.h **** #include <inttypes.h>
  35:F:\kalkulyator-workspace-v2\TeensyCore3\src\Print.h **** #include <stdio.h> // for size_t - gives sprintf and other stuff to all sketches & libs
  36:F:\kalkulyator-workspace-v2\TeensyCore3\src\Print.h **** #include <stdarg.h>
  37:F:\kalkulyator-workspace-v2\TeensyCore3\src\Print.h **** #include "core_id.h"
  38:F:\kalkulyator-workspace-v2\TeensyCore3\src\Print.h **** #include "WString.h"
  39:F:\kalkulyator-workspace-v2\TeensyCore3\src\Print.h **** #include "Printable.h"
  40:F:\kalkulyator-workspace-v2\TeensyCore3\src\Print.h **** 
  41:F:\kalkulyator-workspace-v2\TeensyCore3\src\Print.h **** #define DEC 10
  42:F:\kalkulyator-workspace-v2\TeensyCore3\src\Print.h **** #define HEX 16
  43:F:\kalkulyator-workspace-v2\TeensyCore3\src\Print.h **** #define OCT 8
  44:F:\kalkulyator-workspace-v2\TeensyCore3\src\Print.h **** #define BIN 2
  45:F:\kalkulyator-workspace-v2\TeensyCore3\src\Print.h **** #define BYTE 0
  46:F:\kalkulyator-workspace-v2\TeensyCore3\src\Print.h **** 
  47:F:\kalkulyator-workspace-v2\TeensyCore3\src\Print.h **** class __FlashStringHelper;
  48:F:\kalkulyator-workspace-v2\TeensyCore3\src\Print.h **** 
  49:F:\kalkulyator-workspace-v2\TeensyCore3\src\Print.h **** class Print
  50:F:\kalkulyator-workspace-v2\TeensyCore3\src\Print.h **** {
  51:F:\kalkulyator-workspace-v2\TeensyCore3\src\Print.h ****   public:
  52:F:\kalkulyator-workspace-v2\TeensyCore3\src\Print.h **** 	Print() : write_error(0) {}
  53:F:\kalkulyator-workspace-v2\TeensyCore3\src\Print.h **** 	virtual size_t write(uint8_t b) = 0;
  54:F:\kalkulyator-workspace-v2\TeensyCore3\src\Print.h **** 	size_t write(const char *str)			{ return write((const uint8_t *)str, strlen(str)); }
 486              		.loc 4 54 0
 487 004a 2046     		mov	r0, r4
 488 004c FFF7FEFF 		bl	strlen
 489              	.LVL52:
 490              	.LBB144:
 491              	.LBB145:
 492              		.loc 3 82 0
 493 0050 0146     		mov	r1, r0
 494 0052 2046     		mov	r0, r4
 495              	.LVL53:
 496 0054 FFF7FEFF 		bl	usb_serial_write
 497              	.LVL54:
 498              	.LBE145:
 499              	.LBE144:
 500              	.LBE143:
 501              	.LBE142:
 502              	.LBE141:
  55:F:\kalkulyator-workspace-v2\TeensyCore3\src\Print.h **** 	virtual size_t write(const uint8_t *buffer, size_t size);
  56:F:\kalkulyator-workspace-v2\TeensyCore3\src\Print.h **** 	size_t write(const char *buffer, size_t size)	{ return write((const uint8_t *)buffer, size); }
  57:F:\kalkulyator-workspace-v2\TeensyCore3\src\Print.h **** 	size_t print(const String &s);
  58:F:\kalkulyator-workspace-v2\TeensyCore3\src\Print.h **** 	size_t print(char c)				{ return write((uint8_t)c); }
  59:F:\kalkulyator-workspace-v2\TeensyCore3\src\Print.h **** 	size_t print(const char s[])			{ return write(s); }
  60:F:\kalkulyator-workspace-v2\TeensyCore3\src\Print.h **** 	size_t print(const __FlashStringHelper *f)	{ return write((const char *)f); }
  61:F:\kalkulyator-workspace-v2\TeensyCore3\src\Print.h **** 
  62:F:\kalkulyator-workspace-v2\TeensyCore3\src\Print.h **** 	size_t print(uint8_t b)				{ return printNumber(b, 10, 0); }
  63:F:\kalkulyator-workspace-v2\TeensyCore3\src\Print.h **** 	size_t print(int n)				{ return print((long)n); }
  64:F:\kalkulyator-workspace-v2\TeensyCore3\src\Print.h **** 	size_t print(unsigned int n)			{ return printNumber(n, 10, 0); }
  65:F:\kalkulyator-workspace-v2\TeensyCore3\src\Print.h **** 	size_t print(long n);
  66:F:\kalkulyator-workspace-v2\TeensyCore3\src\Print.h **** 	size_t print(unsigned long n)			{ return printNumber(n, 10, 0); }
  67:F:\kalkulyator-workspace-v2\TeensyCore3\src\Print.h **** 
  68:F:\kalkulyator-workspace-v2\TeensyCore3\src\Print.h **** 	size_t print(unsigned char n, int base)		{ return printNumber(n, base, 0); }
  69:F:\kalkulyator-workspace-v2\TeensyCore3\src\Print.h **** 	size_t print(int n, int base)			{ return (base == 10) ? print(n) : printNumber(n, base, 0); }
  70:F:\kalkulyator-workspace-v2\TeensyCore3\src\Print.h **** 	size_t print(unsigned int n, int base)		{ return printNumber(n, base, 0); }
  71:F:\kalkulyator-workspace-v2\TeensyCore3\src\Print.h **** 	size_t print(long n, int base)			{ return (base == 10) ? print(n) : printNumber(n, base, 0); }
  72:F:\kalkulyator-workspace-v2\TeensyCore3\src\Print.h **** 	size_t print(unsigned long n, int base)		{ return printNumber(n, base, 0); }
  73:F:\kalkulyator-workspace-v2\TeensyCore3\src\Print.h **** 
  74:F:\kalkulyator-workspace-v2\TeensyCore3\src\Print.h **** 	size_t print(double n, int digits = 2)		{ return printFloat(n, digits); }
  75:F:\kalkulyator-workspace-v2\TeensyCore3\src\Print.h **** 	size_t print(const Printable &obj)		{ return obj.printTo(*this); }
  76:F:\kalkulyator-workspace-v2\TeensyCore3\src\Print.h **** 	size_t println(void);
  77:F:\kalkulyator-workspace-v2\TeensyCore3\src\Print.h **** 	size_t println(const String &s)			{ return print(s) + println(); }
  78:F:\kalkulyator-workspace-v2\TeensyCore3\src\Print.h **** 	size_t println(char c)				{ return print(c) + println(); }
  79:F:\kalkulyator-workspace-v2\TeensyCore3\src\Print.h **** 	size_t println(const char s[])			{ return print(s) + println(); }
 503              		.loc 4 79 0
 504 0058 6348     		ldr	r0, .L139+4
 505 005a FFF7FEFF 		bl	_ZN5Print7printlnEv
 506              	.LVL55:
 507              	.LBE140:
 508              	.LBE139:
 509              		.loc 1 83 0
 510 005e D8F80010 		ldr	r1, [r8]
 511 0062 94F90050 		ldrsb	r5, [r4]
 512 0066 D9B1     		cbz	r1, .L69
 513 0068 DFF884C1 		ldr	ip, .L139+12
 514              	.LVL56:
 515              	.L76:
 516              	.LBB146:
  84:../src/main.cpp ****         const char *name_ptr = defptr->name;
  85:../src/main.cpp ****         char *word_ptr = start;
  86:../src/main.cpp ****         while (*name_ptr && *word_ptr && *name_ptr == *word_ptr) {
 517              		.loc 1 86 0
 518 006c 91F90030 		ldrsb	r3, [r1]
 519 0070 002B     		cmp	r3, #0
 520 0072 46D0     		beq	.L100
 521 0074 85B1     		cbz	r5, .L71
 522 0076 AB42     		cmp	r3, r5
 523 0078 08BF     		it	eq
 524 007a 2046     		moveq	r0, r4
 525 007c 05D0     		beq	.L73
 526 007e 0BE0     		b	.L71
 527              	.LVL57:
 528              	.L74:
 529              		.loc 1 86 0 is_stmt 0 discriminator 1
 530 0080 10F9012F 		ldrsb	r2, [r0, #1]!
 531              	.LVL58:
 532 0084 42B1     		cbz	r2, .L71
 533              		.loc 1 86 0 discriminator 2
 534 0086 9342     		cmp	r3, r2
 535 0088 06D1     		bne	.L71
 536              	.LVL59:
 537              	.L73:
 538              		.loc 1 86 0
 539 008a 11F9013F 		ldrsb	r3, [r1, #1]!
 540              	.LVL60:
 541 008e 002B     		cmp	r3, #0
 542 0090 F6D1     		bne	.L74
 543 0092 90F90130 		ldrsb	r3, [r0, #1]
 544              	.LVL61:
 545              	.L70:
  87:../src/main.cpp ****             name_ptr++;
  88:../src/main.cpp ****             word_ptr++;
  89:../src/main.cpp ****         }
  90:../src/main.cpp ****         if (*name_ptr == *word_ptr) {
 546              		.loc 1 90 0 is_stmt 1
 547 0096 83B3     		cbz	r3, .L135
 548              	.L71:
 549              	.LVL62:
 550              	.LBE146:
  83:../src/main.cpp ****         const char *name_ptr = defptr->name;
 551              		.loc 1 83 0
 552 0098 5CF8081F 		ldr	r1, [ip, #8]!
 553              	.LVL63:
 554 009c 0029     		cmp	r1, #0
 555 009e E5D1     		bne	.L76
 556              	.LVL64:
 557              	.L69:
  91:../src/main.cpp ****             defptr->fn();
  92:../src/main.cpp ****             return parse2(buff, len);
  93:../src/main.cpp ****         }
  94:../src/main.cpp ****         defptr++;
  95:../src/main.cpp ****     }
  96:../src/main.cpp **** 
  97:../src/main.cpp ****     if (*start == '$') {
 558              		.loc 1 97 0
 559 00a0 242D     		cmp	r5, #36
 560 00a2 64D0     		beq	.L136
  98:../src/main.cpp ****         if (!parse_hex(start + 1)) return false;
  99:../src/main.cpp ****     } else if (*start == '-') {
 561              		.loc 1 99 0
 562 00a4 2D2D     		cmp	r5, #45
 563 00a6 2ED0     		beq	.L86
 564              	.LVL65:
 565              	.LBB147:
 566              	.LBB148:
  45:../src/main.cpp ****         if (*ptr >= '0' && *ptr <= '9') {
 567              		.loc 1 45 0
 568 00a8 002D     		cmp	r5, #0
 569 00aa 00F09580 		beq	.L137
  46:../src/main.cpp ****             num = num * 10 + (*ptr - '0');
 570              		.loc 1 46 0
 571 00ae A5F13003 		sub	r3, r5, #48
 572 00b2 DBB2     		uxtb	r3, r3
 573 00b4 092B     		cmp	r3, #9
 574 00b6 19D8     		bhi	.L99
 575 00b8 0023     		movs	r3, #0
 576 00ba 01E0     		b	.L97
 577              	.LVL66:
 578              	.L128:
 579 00bc 092A     		cmp	r2, #9
 580 00be 15D8     		bhi	.L99
 581              	.LVL67:
 582              	.L97:
  47:../src/main.cpp ****         } else {
 583              		.loc 1 47 0
 584 00c0 03EB8303 		add	r3, r3, r3, lsl #2
 585              	.LVL68:
 586 00c4 05EB4303 		add	r3, r5, r3, lsl #1
  45:../src/main.cpp ****         if (*ptr >= '0' && *ptr <= '9') {
 587              		.loc 1 45 0
 588 00c8 14F9015F 		ldrsb	r5, [r4, #1]!
 589              	.LVL69:
  46:../src/main.cpp ****             num = num * 10 + (*ptr - '0');
 590              		.loc 1 46 0
 591 00cc A5F13002 		sub	r2, r5, #48
 592 00d0 D2B2     		uxtb	r2, r2
  47:../src/main.cpp ****         } else {
 593              		.loc 1 47 0
 594 00d2 303B     		subs	r3, r3, #48
 595              	.LVL70:
  45:../src/main.cpp ****         if (*ptr >= '0' && *ptr <= '9') {
 596              		.loc 1 45 0
 597 00d4 002D     		cmp	r5, #0
 598 00d6 F1D1     		bne	.L128
 599              	.LVL71:
 600              	.L87:
 601              	.LBB149:
 602              	.LBB150:
 603              	.LBB151:
 604              		.loc 2 28 0
 605 00d8 4449     		ldr	r1, .L139+8
 606 00da 0A68     		ldr	r2, [r1]
 607 00dc 101D     		adds	r0, r2, #4
 608 00de 0860     		str	r0, [r1]
 609 00e0 1360     		str	r3, [r2]
 610              	.LVL72:
 611              	.L75:
 612              	.LBE151:
 613              	.LBE150:
 614              	.LBE149:
 615              	.LBE148:
 616              	.LBE147:
  68:../src/main.cpp **** 
 617              		.loc 1 68 0
 618 00e2 002F     		cmp	r7, #0
 619 00e4 93DC     		bgt	.L61
 620              	.LVL73:
 621              	.L131:
  76:../src/main.cpp ****     len -= end - buff + 1;
 622              		.loc 1 76 0
 623 00e6 0120     		movs	r0, #1
 100:../src/main.cpp ****         if (!parse_neg_dec(start + 1)) return false;
 101:../src/main.cpp ****     } else {
 102:../src/main.cpp ****         if (!parse_dec(start)) return false;
 103:../src/main.cpp ****     }
 104:../src/main.cpp ****     return parse2(buff, len);
 105:../src/main.cpp **** }
 624              		.loc 1 105 0
 625 00e8 BDE8F081 		pop	{r4, r5, r6, r7, r8, pc}
 626              	.LVL74:
 627              	.L99:
 628              	.LBB154:
 629              	.LBB152:
  49:../src/main.cpp ****             return false;
 630              		.loc 1 49 0
 631 00ec 14F9013F 		ldrsb	r3, [r4, #1]!
 632              	.LVL75:
 633 00f0 002B     		cmp	r3, #0
 634 00f2 FBD1     		bne	.L99
 635              	.LVL76:
 636              	.L106:
 637              	.LBE152:
 638              	.LBE154:
  98:../src/main.cpp ****     } else if (*start == '-') {
 639              		.loc 1 98 0
 640 00f4 1846     		mov	r0, r3
 641 00f6 BDE8F081 		pop	{r4, r5, r6, r7, r8, pc}
 642              	.LVL77:
 643              	.L135:
 644              	.LBB155:
  91:../src/main.cpp ****             return parse2(buff, len);
 645              		.loc 1 91 0
 646 00fa DCF80430 		ldr	r3, [ip, #4]
 647 00fe 9847     		blx	r3
 648              	.LVL78:
  92:../src/main.cpp ****         }
 649              		.loc 1 92 0
 650 0100 EFE7     		b	.L75
 651              	.LVL79:
 652              	.L100:
  86:../src/main.cpp ****             name_ptr++;
 653              		.loc 1 86 0
 654 0102 2B46     		mov	r3, r5
 655 0104 C7E7     		b	.L70
 656              	.LVL80:
 657              	.L86:
 658              	.LBE155:
 659              	.LBB156:
 660              	.LBB157:
 661              	.LBB158:
  45:../src/main.cpp ****         if (*ptr >= '0' && *ptr <= '9') {
 662              		.loc 1 45 0
 663 0106 94F90120 		ldrsb	r2, [r4, #1]
 664              	.LBE158:
 665              	.LBE157:
 666              	.LBE156:
 100:../src/main.cpp ****     } else {
 667              		.loc 1 100 0
 668 010a 0134     		adds	r4, r4, #1
 669              	.LVL81:
 670              	.LBB173:
 671              	.LBB165:
 672              	.LBB162:
  45:../src/main.cpp ****         if (*ptr >= '0' && *ptr <= '9') {
 673              		.loc 1 45 0
 674 010c 002A     		cmp	r2, #0
 675 010e 67D0     		beq	.L104
  46:../src/main.cpp ****             num = num * 10 + (*ptr - '0');
 676              		.loc 1 46 0
 677 0110 A2F13003 		sub	r3, r2, #48
 678 0114 DBB2     		uxtb	r3, r3
 679 0116 092B     		cmp	r3, #9
 680 0118 1CD8     		bhi	.L94
 681 011a 0023     		movs	r3, #0
 682 011c 01E0     		b	.L92
 683              	.LVL82:
 684              	.L127:
 685 011e 0929     		cmp	r1, #9
 686 0120 18D8     		bhi	.L94
 687              	.LVL83:
 688              	.L92:
  47:../src/main.cpp ****         } else {
 689              		.loc 1 47 0
 690 0122 03EB8303 		add	r3, r3, r3, lsl #2
 691              	.LVL84:
 692 0126 02EB4303 		add	r3, r2, r3, lsl #1
  45:../src/main.cpp ****         if (*ptr >= '0' && *ptr <= '9') {
 693              		.loc 1 45 0
 694 012a 14F9012F 		ldrsb	r2, [r4, #1]!
  46:../src/main.cpp ****             num = num * 10 + (*ptr - '0');
 695              		.loc 1 46 0
 696 012e A2F13001 		sub	r1, r2, #48
 697 0132 C9B2     		uxtb	r1, r1
  47:../src/main.cpp ****         } else {
 698              		.loc 1 47 0
 699 0134 303B     		subs	r3, r3, #48
 700              	.LVL85:
  45:../src/main.cpp ****         if (*ptr >= '0' && *ptr <= '9') {
 701              		.loc 1 45 0
 702 0136 002A     		cmp	r2, #0
 703 0138 F1D1     		bne	.L127
 704              	.LVL86:
 705              	.L89:
 706              	.LBB159:
 707              	.LBB160:
 708              	.LBB161:
 709              		.loc 2 28 0
 710 013a 2C4C     		ldr	r4, .L139+8
 711 013c 2268     		ldr	r2, [r4]
 712 013e 111D     		adds	r1, r2, #4
 713 0140 2160     		str	r1, [r4]
 714 0142 1360     		str	r3, [r2]
 715              	.LVL87:
 716              	.LBE161:
 717              	.LBE160:
 718              	.LBE159:
 719              	.LBE162:
 720              	.LBE165:
 721              	.LBB166:
 722              	.LBB167:
  60:../src/main.cpp ****         forth::System::Push(-num);
 723              		.loc 1 60 0
 724 0144 FFF7FEFF 		bl	_ZN5forth6System3PopEv
 725              	.LVL88:
 726              	.LBB168:
 727              	.LBB169:
 728              	.LBB170:
 729              		.loc 2 28 0
 730 0148 2368     		ldr	r3, [r4]
 731 014a 4042     		negs	r0, r0
 732              	.LVL89:
 733 014c 1A1D     		adds	r2, r3, #4
 734 014e 2260     		str	r2, [r4]
 735 0150 1860     		str	r0, [r3]
 736              	.LVL90:
 737 0152 C6E7     		b	.L75
 738              	.L94:
 739              	.LVL91:
 740              	.LBE170:
 741              	.LBE169:
 742              	.LBE168:
 743              	.LBE167:
 744              	.LBE166:
 745              	.LBB171:
 746              	.LBB163:
  49:../src/main.cpp ****             return false;
 747              		.loc 1 49 0
 748 0154 14F9013F 		ldrsb	r3, [r4, #1]!
 749              	.LVL92:
 750 0158 002B     		cmp	r3, #0
 751 015a CBD0     		beq	.L106
 752              	.LVL93:
 753 015c 14F9013F 		ldrsb	r3, [r4, #1]!
 754              	.LVL94:
 755 0160 002B     		cmp	r3, #0
 756 0162 F7D1     		bne	.L94
 757 0164 C6E7     		b	.L106
 758              	.LVL95:
 759              	.L63:
 760              	.LBE163:
 761              	.LBE171:
 762              	.LBE173:
  75:../src/main.cpp ****     if (start == end) return true;
 763              		.loc 1 75 0
 764 0166 2370     		strb	r3, [r4]
  76:../src/main.cpp ****     len -= end - buff + 1;
 765              		.loc 1 76 0
 766 0168 0120     		movs	r0, #1
 767              		.loc 1 105 0
 768 016a BDE8F081 		pop	{r4, r5, r6, r7, r8, pc}
 769              	.LVL96:
 770              	.L136:
 771              	.LBB174:
 772              	.LBB175:
  25:../src/main.cpp ****         if (*ptr >= '0' && *ptr <= '9') {
 773              		.loc 1 25 0
 774 016e 94F90130 		ldrsb	r3, [r4, #1]
 775              	.LBE175:
 776              	.LBE174:
  98:../src/main.cpp ****     } else if (*start == '-') {
 777              		.loc 1 98 0
 778 0172 0134     		adds	r4, r4, #1
 779              	.LVL97:
 780              	.LBB181:
 781              	.LBB179:
  25:../src/main.cpp ****         if (*ptr >= '0' && *ptr <= '9') {
 782              		.loc 1 25 0
 783 0174 93B3     		cbz	r3, .L101
 784 0176 0021     		movs	r1, #0
 785 0178 04E0     		b	.L85
 786              	.LVL98:
 787              	.L138:
  27:../src/main.cpp ****         } else if (*ptr >= 'a' && *ptr <= 'f') {
 788              		.loc 1 27 0
 789 017a A0F13001 		sub	r1, r0, #48
 790              	.LVL99:
 791              	.L80:
  25:../src/main.cpp ****         if (*ptr >= '0' && *ptr <= '9') {
 792              		.loc 1 25 0
 793 017e 14F9013F 		ldrsb	r3, [r4, #1]!
 794              	.LVL100:
 795 0182 ABB1     		cbz	r3, .L78
 796              	.LVL101:
 797              	.L85:
  26:../src/main.cpp ****             num = num * 16 + (*ptr - '0');
 798              		.loc 1 26 0
 799 0184 DAB2     		uxtb	r2, r3
 800 0186 A2F13000 		sub	r0, r2, #48
 801 018a 0928     		cmp	r0, #9
  28:../src/main.cpp ****             num = num * 16 + 10 + (*ptr - 'a');
 802              		.loc 1 28 0
 803 018c A2F1610E 		sub	lr, r2, #97
  27:../src/main.cpp ****         } else if (*ptr >= 'a' && *ptr <= 'f') {
 804              		.loc 1 27 0
 805 0190 03EB0110 		add	r0, r3, r1, lsl #4
  26:../src/main.cpp ****             num = num * 16 + (*ptr - '0');
 806              		.loc 1 26 0
 807 0194 F1D9     		bls	.L138
  28:../src/main.cpp ****             num = num * 16 + 10 + (*ptr - 'a');
 808              		.loc 1 28 0
 809 0196 BEF1050F 		cmp	lr, #5
  30:../src/main.cpp ****             num = num * 16 + 10 + (*ptr - 'A');
 810              		.loc 1 30 0
 811 019a A2F14102 		sub	r2, r2, #65
  29:../src/main.cpp ****         } else if (*ptr >= 'A' && *ptr <= 'F') {
 812              		.loc 1 29 0
 813 019e 03EB0110 		add	r0, r3, r1, lsl #4
  28:../src/main.cpp ****             num = num * 16 + 10 + (*ptr - 'a');
 814              		.loc 1 28 0
 815 01a2 0BD8     		bhi	.L81
  25:../src/main.cpp ****         if (*ptr >= '0' && *ptr <= '9') {
 816              		.loc 1 25 0
 817 01a4 14F9013F 		ldrsb	r3, [r4, #1]!
 818              	.LVL102:
  29:../src/main.cpp ****         } else if (*ptr >= 'A' && *ptr <= 'F') {
 819              		.loc 1 29 0
 820 01a8 A0F15701 		sub	r1, r0, #87
 821              	.LVL103:
  25:../src/main.cpp ****         if (*ptr >= '0' && *ptr <= '9') {
 822              		.loc 1 25 0
 823 01ac 002B     		cmp	r3, #0
 824 01ae E9D1     		bne	.L85
 825              	.LVL104:
 826              	.L78:
 827              	.LBB176:
 828              	.LBB177:
 829              	.LBB178:
 830              		.loc 2 28 0
 831 01b0 0E4A     		ldr	r2, .L139+8
 832 01b2 1368     		ldr	r3, [r2]
 833 01b4 181D     		adds	r0, r3, #4
 834 01b6 1060     		str	r0, [r2]
 835 01b8 1960     		str	r1, [r3]
 836              	.LVL105:
 837 01ba 92E7     		b	.L75
 838              	.LVL106:
 839              	.L81:
 840              	.LBE178:
 841              	.LBE177:
 842              	.LBE176:
  30:../src/main.cpp ****             num = num * 16 + 10 + (*ptr - 'A');
 843              		.loc 1 30 0
 844 01bc 052A     		cmp	r2, #5
 845 01be 02D8     		bhi	.L84
  31:../src/main.cpp ****         } else {
 846              		.loc 1 31 0
 847 01c0 A0F13701 		sub	r1, r0, #55
 848              	.LVL107:
 849 01c4 DBE7     		b	.L80
 850              	.LVL108:
 851              	.L84:
  33:../src/main.cpp ****             return false;
 852              		.loc 1 33 0
 853 01c6 14F9013F 		ldrsb	r3, [r4, #1]!
 854              	.LVL109:
 855 01ca 002B     		cmp	r3, #0
 856 01cc 92D0     		beq	.L106
 857              	.LVL110:
 858 01ce 14F9013F 		ldrsb	r3, [r4, #1]!
 859              	.LVL111:
 860 01d2 002B     		cmp	r3, #0
 861 01d4 F7D1     		bne	.L84
 862 01d6 8DE7     		b	.L106
 863              	.LVL112:
 864              	.L137:
 865              	.LBE179:
 866              	.LBE181:
 867              	.LBB182:
 868              	.LBB153:
  45:../src/main.cpp ****         if (*ptr >= '0' && *ptr <= '9') {
 869              		.loc 1 45 0
 870 01d8 2B46     		mov	r3, r5
 871 01da 7DE7     		b	.L87
 872              	.LVL113:
 873              	.L101:
 874              	.LBE153:
 875              	.LBE182:
 876              	.LBB183:
 877              	.LBB180:
  23:../src/main.cpp ****     char *ptr = buff;
 878              		.loc 1 23 0
 879 01dc 1946     		mov	r1, r3
 880 01de E7E7     		b	.L78
 881              	.LVL114:
 882              	.L104:
 883              	.LBE180:
 884              	.LBE183:
 885              	.LBB184:
 886              	.LBB172:
 887              	.LBB164:
  43:../src/main.cpp ****     char *ptr = buff;
 888              		.loc 1 43 0
 889 01e0 1346     		mov	r3, r2
 890 01e2 AAE7     		b	.L89
 891              	.L140:
 892              		.align	2
 893              	.L139:
 894 01e4 00000000 		.word	.LC0
 895 01e8 00000000 		.word	Serial
 896 01ec 00000000 		.word	_ZN5forth9DataStack3sp_E
 897 01f0 00000000 		.word	.LANCHOR0
 898              	.LBE164:
 899              	.LBE172:
 900              	.LBE184:
 901              		.cfi_endproc
 902              	.LFE482:
 903              		.fnend
 905              		.section	.text.startup.main,"ax",%progbits
 906              		.align	2
 907              		.global	main
 908              		.thumb
 909              		.thumb_func
 911              	main:
 912              		.fnstart
 913              	.LFB483:
 106:../src/main.cpp **** 
 107:../src/main.cpp **** char word_buff[128];
 108:../src/main.cpp **** 
 109:../src/main.cpp **** extern "C" int main(void)
 110:../src/main.cpp **** {
 914              		.loc 1 110 0
 915              		.cfi_startproc
 916              		@ args = 0, pretend = 0, frame = 0
 917              		@ frame_needed = 0, uses_anonymous_args = 0
 918 0000 2DE9F041 		push	{r4, r5, r6, r7, r8, lr}
 919              		.save {r4, r5, r6, r7, r8, lr}
 920              		.cfi_def_cfa_offset 24
 921              		.cfi_offset 4, -24
 922              		.cfi_offset 5, -20
 923              		.cfi_offset 6, -16
 924              		.cfi_offset 7, -12
 925              		.cfi_offset 8, -8
 926              		.cfi_offset 14, -4
 111:../src/main.cpp ****     delay(2000); // delay for USB to get ready
 927              		.loc 1 111 0
 928 0004 4FF4FA60 		mov	r0, #2000
 929 0008 FFF7FEFF 		bl	delay
 930              	.LVL115:
 112:../src/main.cpp **** 
 113:../src/main.cpp ****     forth::System& system = forth::System::instance();
 931              		.loc 1 113 0
 932 000c FFF7FEFF 		bl	_ZN5forth6System8instanceEv
 933              	.LVL116:
 934              	.LBB197:
 935              	.LBB198:
 936              	.LBB199:
 937              	.LBB200:
 938              	.LBB201:
 939              	.LBB202:
 940              		.loc 3 82 0
 941 0010 1121     		movs	r1, #17
 942 0012 0F48     		ldr	r0, .L144
 943 0014 0F4C     		ldr	r4, .L144+4
 944              	.LBE202:
 945              	.LBE201:
 946              	.LBE200:
 947              	.LBE199:
 948              	.LBE198:
 949              	.LBE197:
 950              	.LBB208:
 951              	.LBB209:
 952              		.file 5 "F:\\kalkulyator-workspace-v2\\TeensyCore3\\src/core_pins.h"
   1:F:\kalkulyator-workspace-v2\TeensyCore3\src\core_pins.h **** /* Teensyduino Core Library
   2:F:\kalkulyator-workspace-v2\TeensyCore3\src\core_pins.h ****  * http://www.pjrc.com/teensy/
   3:F:\kalkulyator-workspace-v2\TeensyCore3\src\core_pins.h ****  * Copyright (c) 2013 PJRC.COM, LLC.
   4:F:\kalkulyator-workspace-v2\TeensyCore3\src\core_pins.h ****  *
   5:F:\kalkulyator-workspace-v2\TeensyCore3\src\core_pins.h ****  * Permission is hereby granted, free of charge, to any person obtaining
   6:F:\kalkulyator-workspace-v2\TeensyCore3\src\core_pins.h ****  * a copy of this software and associated documentation files (the
   7:F:\kalkulyator-workspace-v2\TeensyCore3\src\core_pins.h ****  * "Software"), to deal in the Software without restriction, including
   8:F:\kalkulyator-workspace-v2\TeensyCore3\src\core_pins.h ****  * without limitation the rights to use, copy, modify, merge, publish,
   9:F:\kalkulyator-workspace-v2\TeensyCore3\src\core_pins.h ****  * distribute, sublicense, and/or sell copies of the Software, and to
  10:F:\kalkulyator-workspace-v2\TeensyCore3\src\core_pins.h ****  * permit persons to whom the Software is furnished to do so, subject to
  11:F:\kalkulyator-workspace-v2\TeensyCore3\src\core_pins.h ****  * the following conditions:
  12:F:\kalkulyator-workspace-v2\TeensyCore3\src\core_pins.h ****  *
  13:F:\kalkulyator-workspace-v2\TeensyCore3\src\core_pins.h ****  * 1. The above copyright notice and this permission notice shall be
  14:F:\kalkulyator-workspace-v2\TeensyCore3\src\core_pins.h ****  * included in all copies or substantial portions of the Software.
  15:F:\kalkulyator-workspace-v2\TeensyCore3\src\core_pins.h ****  *
  16:F:\kalkulyator-workspace-v2\TeensyCore3\src\core_pins.h ****  * 2. If the Software is incorporated into a build system that allows
  17:F:\kalkulyator-workspace-v2\TeensyCore3\src\core_pins.h ****  * selection among a list of target devices, then similar target
  18:F:\kalkulyator-workspace-v2\TeensyCore3\src\core_pins.h ****  * devices manufactured by PJRC.COM must be included in the list of
  19:F:\kalkulyator-workspace-v2\TeensyCore3\src\core_pins.h ****  * target devices and selectable in the same manner.
  20:F:\kalkulyator-workspace-v2\TeensyCore3\src\core_pins.h ****  *
  21:F:\kalkulyator-workspace-v2\TeensyCore3\src\core_pins.h ****  * THE SOFTWARE IS PROVIDED "AS IS", WITHOUT WARRANTY OF ANY KIND,
  22:F:\kalkulyator-workspace-v2\TeensyCore3\src\core_pins.h ****  * EXPRESS OR IMPLIED, INCLUDING BUT NOT LIMITED TO THE WARRANTIES OF
  23:F:\kalkulyator-workspace-v2\TeensyCore3\src\core_pins.h ****  * MERCHANTABILITY, FITNESS FOR A PARTICULAR PURPOSE AND
  24:F:\kalkulyator-workspace-v2\TeensyCore3\src\core_pins.h ****  * NONINFRINGEMENT. IN NO EVENT SHALL THE AUTHORS OR COPYRIGHT HOLDERS
  25:F:\kalkulyator-workspace-v2\TeensyCore3\src\core_pins.h ****  * BE LIABLE FOR ANY CLAIM, DAMAGES OR OTHER LIABILITY, WHETHER IN AN
  26:F:\kalkulyator-workspace-v2\TeensyCore3\src\core_pins.h ****  * ACTION OF CONTRACT, TORT OR OTHERWISE, ARISING FROM, OUT OF OR IN
  27:F:\kalkulyator-workspace-v2\TeensyCore3\src\core_pins.h ****  * CONNECTION WITH THE SOFTWARE OR THE USE OR OTHER DEALINGS IN THE
  28:F:\kalkulyator-workspace-v2\TeensyCore3\src\core_pins.h ****  * SOFTWARE.
  29:F:\kalkulyator-workspace-v2\TeensyCore3\src\core_pins.h ****  */
  30:F:\kalkulyator-workspace-v2\TeensyCore3\src\core_pins.h **** 
  31:F:\kalkulyator-workspace-v2\TeensyCore3\src\core_pins.h **** #ifndef _core_pins_h_
  32:F:\kalkulyator-workspace-v2\TeensyCore3\src\core_pins.h **** #define _core_pins_h_
  33:F:\kalkulyator-workspace-v2\TeensyCore3\src\core_pins.h **** 
  34:F:\kalkulyator-workspace-v2\TeensyCore3\src\core_pins.h **** #include "kinetis.h"
  35:F:\kalkulyator-workspace-v2\TeensyCore3\src\core_pins.h **** #include "pins_arduino.h"
  36:F:\kalkulyator-workspace-v2\TeensyCore3\src\core_pins.h **** 
  37:F:\kalkulyator-workspace-v2\TeensyCore3\src\core_pins.h **** #define HIGH		1
  38:F:\kalkulyator-workspace-v2\TeensyCore3\src\core_pins.h **** #define LOW		0
  39:F:\kalkulyator-workspace-v2\TeensyCore3\src\core_pins.h **** #define INPUT		0
  40:F:\kalkulyator-workspace-v2\TeensyCore3\src\core_pins.h **** #define OUTPUT		1
  41:F:\kalkulyator-workspace-v2\TeensyCore3\src\core_pins.h **** #define INPUT_PULLUP	2
  42:F:\kalkulyator-workspace-v2\TeensyCore3\src\core_pins.h **** #define INPUT_PULLDOWN   3
  43:F:\kalkulyator-workspace-v2\TeensyCore3\src\core_pins.h **** #define OUTPUT_OPENDRAIN 4
  44:F:\kalkulyator-workspace-v2\TeensyCore3\src\core_pins.h **** #define LSBFIRST	0
  45:F:\kalkulyator-workspace-v2\TeensyCore3\src\core_pins.h **** #define MSBFIRST	1
  46:F:\kalkulyator-workspace-v2\TeensyCore3\src\core_pins.h **** #define _BV(n)		(1<<(n))
  47:F:\kalkulyator-workspace-v2\TeensyCore3\src\core_pins.h **** #define CHANGE		4
  48:F:\kalkulyator-workspace-v2\TeensyCore3\src\core_pins.h **** #define FALLING		2
  49:F:\kalkulyator-workspace-v2\TeensyCore3\src\core_pins.h **** #define RISING		3
  50:F:\kalkulyator-workspace-v2\TeensyCore3\src\core_pins.h **** 
  51:F:\kalkulyator-workspace-v2\TeensyCore3\src\core_pins.h **** // Pin				Arduino
  52:F:\kalkulyator-workspace-v2\TeensyCore3\src\core_pins.h **** //  0	B16			RXD
  53:F:\kalkulyator-workspace-v2\TeensyCore3\src\core_pins.h **** //  1	B17			TXD
  54:F:\kalkulyator-workspace-v2\TeensyCore3\src\core_pins.h **** //  2	D0
  55:F:\kalkulyator-workspace-v2\TeensyCore3\src\core_pins.h **** //  3	A12	FTM1_CH0
  56:F:\kalkulyator-workspace-v2\TeensyCore3\src\core_pins.h **** //  4	A13	FTM1_CH1
  57:F:\kalkulyator-workspace-v2\TeensyCore3\src\core_pins.h **** //  5	D7	FTM0_CH7	OC0B/T1
  58:F:\kalkulyator-workspace-v2\TeensyCore3\src\core_pins.h **** //  6	D4	FTM0_CH4	OC0A
  59:F:\kalkulyator-workspace-v2\TeensyCore3\src\core_pins.h **** //  7	D2
  60:F:\kalkulyator-workspace-v2\TeensyCore3\src\core_pins.h **** //  8	D3			ICP1
  61:F:\kalkulyator-workspace-v2\TeensyCore3\src\core_pins.h **** //  9	C3	FTM0_CH2	OC1A
  62:F:\kalkulyator-workspace-v2\TeensyCore3\src\core_pins.h **** // 10	C4	FTM0_CH3	SS/OC1B
  63:F:\kalkulyator-workspace-v2\TeensyCore3\src\core_pins.h **** // 11	C6			MOSI/OC2A
  64:F:\kalkulyator-workspace-v2\TeensyCore3\src\core_pins.h **** // 12	C7			MISO
  65:F:\kalkulyator-workspace-v2\TeensyCore3\src\core_pins.h **** // 13	C5			SCK
  66:F:\kalkulyator-workspace-v2\TeensyCore3\src\core_pins.h **** // 14	D1
  67:F:\kalkulyator-workspace-v2\TeensyCore3\src\core_pins.h **** // 15	C0
  68:F:\kalkulyator-workspace-v2\TeensyCore3\src\core_pins.h **** // 16	B0	(FTM1_CH0)
  69:F:\kalkulyator-workspace-v2\TeensyCore3\src\core_pins.h **** // 17	B1	(FTM1_CH1)
  70:F:\kalkulyator-workspace-v2\TeensyCore3\src\core_pins.h **** // 18	B3			SDA
  71:F:\kalkulyator-workspace-v2\TeensyCore3\src\core_pins.h **** // 19	B2			SCL
  72:F:\kalkulyator-workspace-v2\TeensyCore3\src\core_pins.h **** // 20	D5	FTM0_CH5
  73:F:\kalkulyator-workspace-v2\TeensyCore3\src\core_pins.h **** // 21	D6	FTM0_CH6
  74:F:\kalkulyator-workspace-v2\TeensyCore3\src\core_pins.h **** // 22	C1	FTM0_CH0
  75:F:\kalkulyator-workspace-v2\TeensyCore3\src\core_pins.h **** // 23	C2	FTM0_CH1
  76:F:\kalkulyator-workspace-v2\TeensyCore3\src\core_pins.h **** // 24	A5	(FTM0_CH2)
  77:F:\kalkulyator-workspace-v2\TeensyCore3\src\core_pins.h **** // 25	B19
  78:F:\kalkulyator-workspace-v2\TeensyCore3\src\core_pins.h **** // 26	E1
  79:F:\kalkulyator-workspace-v2\TeensyCore3\src\core_pins.h **** // 27	C9
  80:F:\kalkulyator-workspace-v2\TeensyCore3\src\core_pins.h **** // 28	C8
  81:F:\kalkulyator-workspace-v2\TeensyCore3\src\core_pins.h **** // 29	C10
  82:F:\kalkulyator-workspace-v2\TeensyCore3\src\core_pins.h **** // 30	C11
  83:F:\kalkulyator-workspace-v2\TeensyCore3\src\core_pins.h **** // 31	E0
  84:F:\kalkulyator-workspace-v2\TeensyCore3\src\core_pins.h **** // 32	B18
  85:F:\kalkulyator-workspace-v2\TeensyCore3\src\core_pins.h **** // 33	A4	(FTM0_CH1)
  86:F:\kalkulyator-workspace-v2\TeensyCore3\src\core_pins.h **** // (34)	analog only
  87:F:\kalkulyator-workspace-v2\TeensyCore3\src\core_pins.h **** // (35)	analog only
  88:F:\kalkulyator-workspace-v2\TeensyCore3\src\core_pins.h **** // (36)	analog only
  89:F:\kalkulyator-workspace-v2\TeensyCore3\src\core_pins.h **** // (37)	analog only
  90:F:\kalkulyator-workspace-v2\TeensyCore3\src\core_pins.h **** 
  91:F:\kalkulyator-workspace-v2\TeensyCore3\src\core_pins.h **** // not available to user:
  92:F:\kalkulyator-workspace-v2\TeensyCore3\src\core_pins.h **** //	A0	FTM0_CH5	SWD Clock
  93:F:\kalkulyator-workspace-v2\TeensyCore3\src\core_pins.h **** //	A1	FTM0_CH6	USB ID
  94:F:\kalkulyator-workspace-v2\TeensyCore3\src\core_pins.h **** //	A2	FTM0_CH7	SWD Trace
  95:F:\kalkulyator-workspace-v2\TeensyCore3\src\core_pins.h **** //	A3	FTM0_CH0	SWD Data
  96:F:\kalkulyator-workspace-v2\TeensyCore3\src\core_pins.h **** 
  97:F:\kalkulyator-workspace-v2\TeensyCore3\src\core_pins.h **** #if defined(__MK20DX128__)
  98:F:\kalkulyator-workspace-v2\TeensyCore3\src\core_pins.h **** #define CORE_NUM_TOTAL_PINS     34
  99:F:\kalkulyator-workspace-v2\TeensyCore3\src\core_pins.h **** #define CORE_NUM_DIGITAL        34
 100:F:\kalkulyator-workspace-v2\TeensyCore3\src\core_pins.h **** #define CORE_NUM_INTERRUPT      34
 101:F:\kalkulyator-workspace-v2\TeensyCore3\src\core_pins.h **** #define CORE_NUM_ANALOG         14
 102:F:\kalkulyator-workspace-v2\TeensyCore3\src\core_pins.h **** #define CORE_NUM_PWM            10
 103:F:\kalkulyator-workspace-v2\TeensyCore3\src\core_pins.h **** #elif defined(__MK20DX256__)
 104:F:\kalkulyator-workspace-v2\TeensyCore3\src\core_pins.h **** #define CORE_NUM_TOTAL_PINS     34
 105:F:\kalkulyator-workspace-v2\TeensyCore3\src\core_pins.h **** #define CORE_NUM_DIGITAL        34
 106:F:\kalkulyator-workspace-v2\TeensyCore3\src\core_pins.h **** #define CORE_NUM_INTERRUPT      34
 107:F:\kalkulyator-workspace-v2\TeensyCore3\src\core_pins.h **** #define CORE_NUM_ANALOG         21
 108:F:\kalkulyator-workspace-v2\TeensyCore3\src\core_pins.h **** #define CORE_NUM_PWM            12
 109:F:\kalkulyator-workspace-v2\TeensyCore3\src\core_pins.h **** #elif defined(__MKL26Z64__)
 110:F:\kalkulyator-workspace-v2\TeensyCore3\src\core_pins.h **** #define CORE_NUM_TOTAL_PINS     27
 111:F:\kalkulyator-workspace-v2\TeensyCore3\src\core_pins.h **** #define CORE_NUM_DIGITAL        27
 112:F:\kalkulyator-workspace-v2\TeensyCore3\src\core_pins.h **** #define CORE_NUM_INTERRUPT      24  // really only 18, but 6 "holes"
 113:F:\kalkulyator-workspace-v2\TeensyCore3\src\core_pins.h **** #define CORE_NUM_ANALOG         13
 114:F:\kalkulyator-workspace-v2\TeensyCore3\src\core_pins.h **** #define CORE_NUM_PWM            10
 115:F:\kalkulyator-workspace-v2\TeensyCore3\src\core_pins.h **** #elif defined(__MK64FX512__) || defined(__FRDM_K64F__)
 116:F:\kalkulyator-workspace-v2\TeensyCore3\src\core_pins.h **** #define CORE_NUM_TOTAL_PINS     64
 117:F:\kalkulyator-workspace-v2\TeensyCore3\src\core_pins.h **** #define CORE_NUM_DIGITAL        64
 118:F:\kalkulyator-workspace-v2\TeensyCore3\src\core_pins.h **** #define CORE_NUM_INTERRUPT      64
 119:F:\kalkulyator-workspace-v2\TeensyCore3\src\core_pins.h **** #define CORE_NUM_ANALOG         27
 120:F:\kalkulyator-workspace-v2\TeensyCore3\src\core_pins.h **** #define CORE_NUM_PWM            20
 121:F:\kalkulyator-workspace-v2\TeensyCore3\src\core_pins.h **** #elif defined(__MK66FX1M0__)
 122:F:\kalkulyator-workspace-v2\TeensyCore3\src\core_pins.h **** #define CORE_NUM_TOTAL_PINS     64
 123:F:\kalkulyator-workspace-v2\TeensyCore3\src\core_pins.h **** #define CORE_NUM_DIGITAL        64
 124:F:\kalkulyator-workspace-v2\TeensyCore3\src\core_pins.h **** #define CORE_NUM_INTERRUPT      64
 125:F:\kalkulyator-workspace-v2\TeensyCore3\src\core_pins.h **** #define CORE_NUM_ANALOG         25
 126:F:\kalkulyator-workspace-v2\TeensyCore3\src\core_pins.h **** #define CORE_NUM_PWM            22
 127:F:\kalkulyator-workspace-v2\TeensyCore3\src\core_pins.h **** #endif
 128:F:\kalkulyator-workspace-v2\TeensyCore3\src\core_pins.h **** 
 129:F:\kalkulyator-workspace-v2\TeensyCore3\src\core_pins.h **** // These MAX_PIN_PORTx values have the highest Kinetis pin index
 130:F:\kalkulyator-workspace-v2\TeensyCore3\src\core_pins.h **** // that is used for a given port.
 131:F:\kalkulyator-workspace-v2\TeensyCore3\src\core_pins.h **** #if defined(__MK20DX128__) || defined(__MK20DX256__)
 132:F:\kalkulyator-workspace-v2\TeensyCore3\src\core_pins.h **** #define CORE_MAX_PIN_PORTA        13
 133:F:\kalkulyator-workspace-v2\TeensyCore3\src\core_pins.h **** #define CORE_MAX_PIN_PORTB        19
 134:F:\kalkulyator-workspace-v2\TeensyCore3\src\core_pins.h **** #define CORE_MAX_PIN_PORTC        11
 135:F:\kalkulyator-workspace-v2\TeensyCore3\src\core_pins.h **** #define CORE_MAX_PIN_PORTD         7
 136:F:\kalkulyator-workspace-v2\TeensyCore3\src\core_pins.h **** #define CORE_MAX_PIN_PORTE         1
 137:F:\kalkulyator-workspace-v2\TeensyCore3\src\core_pins.h **** #elif defined(__MKL26Z64__)
 138:F:\kalkulyator-workspace-v2\TeensyCore3\src\core_pins.h **** #define CORE_MAX_PIN_PORTA         2
 139:F:\kalkulyator-workspace-v2\TeensyCore3\src\core_pins.h **** #define CORE_MAX_PIN_PORTB        17
 140:F:\kalkulyator-workspace-v2\TeensyCore3\src\core_pins.h **** #define CORE_MAX_PIN_PORTC         7
 141:F:\kalkulyator-workspace-v2\TeensyCore3\src\core_pins.h **** #define CORE_MAX_PIN_PORTD         7
 142:F:\kalkulyator-workspace-v2\TeensyCore3\src\core_pins.h **** #define CORE_MAX_PIN_PORTE        30
 143:F:\kalkulyator-workspace-v2\TeensyCore3\src\core_pins.h **** #elif defined(__MK64FX512__) || defined(__MK66FX1M0__) || defined(__FRDM_K64F__)
 144:F:\kalkulyator-workspace-v2\TeensyCore3\src\core_pins.h **** #define CORE_MAX_PIN_PORTA        29
 145:F:\kalkulyator-workspace-v2\TeensyCore3\src\core_pins.h **** #define CORE_MAX_PIN_PORTB        23
 146:F:\kalkulyator-workspace-v2\TeensyCore3\src\core_pins.h **** #define CORE_MAX_PIN_PORTC        11
 147:F:\kalkulyator-workspace-v2\TeensyCore3\src\core_pins.h **** #define CORE_MAX_PIN_PORTD        15
 148:F:\kalkulyator-workspace-v2\TeensyCore3\src\core_pins.h **** #define CORE_MAX_PIN_PORTE        26
 149:F:\kalkulyator-workspace-v2\TeensyCore3\src\core_pins.h **** #endif
 150:F:\kalkulyator-workspace-v2\TeensyCore3\src\core_pins.h **** 
 151:F:\kalkulyator-workspace-v2\TeensyCore3\src\core_pins.h **** 
 152:F:\kalkulyator-workspace-v2\TeensyCore3\src\core_pins.h **** #if defined(__MK20DX128__) || defined(__MK20DX256__)
 153:F:\kalkulyator-workspace-v2\TeensyCore3\src\core_pins.h **** 
 154:F:\kalkulyator-workspace-v2\TeensyCore3\src\core_pins.h **** #define CORE_PIN0_BIT		16
 155:F:\kalkulyator-workspace-v2\TeensyCore3\src\core_pins.h **** #define CORE_PIN1_BIT		17
 156:F:\kalkulyator-workspace-v2\TeensyCore3\src\core_pins.h **** #define CORE_PIN2_BIT		0
 157:F:\kalkulyator-workspace-v2\TeensyCore3\src\core_pins.h **** #define CORE_PIN3_BIT		12
 158:F:\kalkulyator-workspace-v2\TeensyCore3\src\core_pins.h **** #define CORE_PIN4_BIT		13
 159:F:\kalkulyator-workspace-v2\TeensyCore3\src\core_pins.h **** #define CORE_PIN5_BIT		7
 160:F:\kalkulyator-workspace-v2\TeensyCore3\src\core_pins.h **** #define CORE_PIN6_BIT		4
 161:F:\kalkulyator-workspace-v2\TeensyCore3\src\core_pins.h **** #define CORE_PIN7_BIT		2
 162:F:\kalkulyator-workspace-v2\TeensyCore3\src\core_pins.h **** #define CORE_PIN8_BIT		3
 163:F:\kalkulyator-workspace-v2\TeensyCore3\src\core_pins.h **** #define CORE_PIN9_BIT		3
 164:F:\kalkulyator-workspace-v2\TeensyCore3\src\core_pins.h **** #define CORE_PIN10_BIT		4
 165:F:\kalkulyator-workspace-v2\TeensyCore3\src\core_pins.h **** #define CORE_PIN11_BIT		6
 166:F:\kalkulyator-workspace-v2\TeensyCore3\src\core_pins.h **** #define CORE_PIN12_BIT		7
 167:F:\kalkulyator-workspace-v2\TeensyCore3\src\core_pins.h **** #define CORE_PIN13_BIT		5
 168:F:\kalkulyator-workspace-v2\TeensyCore3\src\core_pins.h **** #define CORE_PIN14_BIT		1
 169:F:\kalkulyator-workspace-v2\TeensyCore3\src\core_pins.h **** #define CORE_PIN15_BIT		0
 170:F:\kalkulyator-workspace-v2\TeensyCore3\src\core_pins.h **** #define CORE_PIN16_BIT		0
 171:F:\kalkulyator-workspace-v2\TeensyCore3\src\core_pins.h **** #define CORE_PIN17_BIT		1
 172:F:\kalkulyator-workspace-v2\TeensyCore3\src\core_pins.h **** #define CORE_PIN18_BIT		3
 173:F:\kalkulyator-workspace-v2\TeensyCore3\src\core_pins.h **** #define CORE_PIN19_BIT		2
 174:F:\kalkulyator-workspace-v2\TeensyCore3\src\core_pins.h **** #define CORE_PIN20_BIT		5
 175:F:\kalkulyator-workspace-v2\TeensyCore3\src\core_pins.h **** #define CORE_PIN21_BIT		6
 176:F:\kalkulyator-workspace-v2\TeensyCore3\src\core_pins.h **** #define CORE_PIN22_BIT		1
 177:F:\kalkulyator-workspace-v2\TeensyCore3\src\core_pins.h **** #define CORE_PIN23_BIT		2
 178:F:\kalkulyator-workspace-v2\TeensyCore3\src\core_pins.h **** #define CORE_PIN24_BIT		5
 179:F:\kalkulyator-workspace-v2\TeensyCore3\src\core_pins.h **** #define CORE_PIN25_BIT		19
 180:F:\kalkulyator-workspace-v2\TeensyCore3\src\core_pins.h **** #define CORE_PIN26_BIT		1
 181:F:\kalkulyator-workspace-v2\TeensyCore3\src\core_pins.h **** #define CORE_PIN27_BIT		9
 182:F:\kalkulyator-workspace-v2\TeensyCore3\src\core_pins.h **** #define CORE_PIN28_BIT		8
 183:F:\kalkulyator-workspace-v2\TeensyCore3\src\core_pins.h **** #define CORE_PIN29_BIT		10
 184:F:\kalkulyator-workspace-v2\TeensyCore3\src\core_pins.h **** #define CORE_PIN30_BIT		11
 185:F:\kalkulyator-workspace-v2\TeensyCore3\src\core_pins.h **** #define CORE_PIN31_BIT		0
 186:F:\kalkulyator-workspace-v2\TeensyCore3\src\core_pins.h **** #define CORE_PIN32_BIT		18
 187:F:\kalkulyator-workspace-v2\TeensyCore3\src\core_pins.h **** #define CORE_PIN33_BIT		4
 188:F:\kalkulyator-workspace-v2\TeensyCore3\src\core_pins.h **** 
 189:F:\kalkulyator-workspace-v2\TeensyCore3\src\core_pins.h **** #define CORE_PIN0_BITMASK	(1<<(CORE_PIN0_BIT))
 190:F:\kalkulyator-workspace-v2\TeensyCore3\src\core_pins.h **** #define CORE_PIN1_BITMASK	(1<<(CORE_PIN1_BIT))
 191:F:\kalkulyator-workspace-v2\TeensyCore3\src\core_pins.h **** #define CORE_PIN2_BITMASK	(1<<(CORE_PIN2_BIT))
 192:F:\kalkulyator-workspace-v2\TeensyCore3\src\core_pins.h **** #define CORE_PIN3_BITMASK	(1<<(CORE_PIN3_BIT))
 193:F:\kalkulyator-workspace-v2\TeensyCore3\src\core_pins.h **** #define CORE_PIN4_BITMASK	(1<<(CORE_PIN4_BIT))
 194:F:\kalkulyator-workspace-v2\TeensyCore3\src\core_pins.h **** #define CORE_PIN5_BITMASK	(1<<(CORE_PIN5_BIT))
 195:F:\kalkulyator-workspace-v2\TeensyCore3\src\core_pins.h **** #define CORE_PIN6_BITMASK	(1<<(CORE_PIN6_BIT))
 196:F:\kalkulyator-workspace-v2\TeensyCore3\src\core_pins.h **** #define CORE_PIN7_BITMASK	(1<<(CORE_PIN7_BIT))
 197:F:\kalkulyator-workspace-v2\TeensyCore3\src\core_pins.h **** #define CORE_PIN8_BITMASK	(1<<(CORE_PIN8_BIT))
 198:F:\kalkulyator-workspace-v2\TeensyCore3\src\core_pins.h **** #define CORE_PIN9_BITMASK	(1<<(CORE_PIN9_BIT))
 199:F:\kalkulyator-workspace-v2\TeensyCore3\src\core_pins.h **** #define CORE_PIN10_BITMASK	(1<<(CORE_PIN10_BIT))
 200:F:\kalkulyator-workspace-v2\TeensyCore3\src\core_pins.h **** #define CORE_PIN11_BITMASK	(1<<(CORE_PIN11_BIT))
 201:F:\kalkulyator-workspace-v2\TeensyCore3\src\core_pins.h **** #define CORE_PIN12_BITMASK	(1<<(CORE_PIN12_BIT))
 202:F:\kalkulyator-workspace-v2\TeensyCore3\src\core_pins.h **** #define CORE_PIN13_BITMASK	(1<<(CORE_PIN13_BIT))
 203:F:\kalkulyator-workspace-v2\TeensyCore3\src\core_pins.h **** #define CORE_PIN14_BITMASK	(1<<(CORE_PIN14_BIT))
 204:F:\kalkulyator-workspace-v2\TeensyCore3\src\core_pins.h **** #define CORE_PIN15_BITMASK	(1<<(CORE_PIN15_BIT))
 205:F:\kalkulyator-workspace-v2\TeensyCore3\src\core_pins.h **** #define CORE_PIN16_BITMASK	(1<<(CORE_PIN16_BIT))
 206:F:\kalkulyator-workspace-v2\TeensyCore3\src\core_pins.h **** #define CORE_PIN17_BITMASK	(1<<(CORE_PIN17_BIT))
 207:F:\kalkulyator-workspace-v2\TeensyCore3\src\core_pins.h **** #define CORE_PIN18_BITMASK	(1<<(CORE_PIN18_BIT))
 208:F:\kalkulyator-workspace-v2\TeensyCore3\src\core_pins.h **** #define CORE_PIN19_BITMASK	(1<<(CORE_PIN19_BIT))
 209:F:\kalkulyator-workspace-v2\TeensyCore3\src\core_pins.h **** #define CORE_PIN20_BITMASK	(1<<(CORE_PIN20_BIT))
 210:F:\kalkulyator-workspace-v2\TeensyCore3\src\core_pins.h **** #define CORE_PIN21_BITMASK	(1<<(CORE_PIN21_BIT))
 211:F:\kalkulyator-workspace-v2\TeensyCore3\src\core_pins.h **** #define CORE_PIN22_BITMASK	(1<<(CORE_PIN22_BIT))
 212:F:\kalkulyator-workspace-v2\TeensyCore3\src\core_pins.h **** #define CORE_PIN23_BITMASK	(1<<(CORE_PIN23_BIT))
 213:F:\kalkulyator-workspace-v2\TeensyCore3\src\core_pins.h **** #define CORE_PIN24_BITMASK	(1<<(CORE_PIN24_BIT))
 214:F:\kalkulyator-workspace-v2\TeensyCore3\src\core_pins.h **** #define CORE_PIN25_BITMASK	(1<<(CORE_PIN25_BIT))
 215:F:\kalkulyator-workspace-v2\TeensyCore3\src\core_pins.h **** #define CORE_PIN26_BITMASK	(1<<(CORE_PIN26_BIT))
 216:F:\kalkulyator-workspace-v2\TeensyCore3\src\core_pins.h **** #define CORE_PIN27_BITMASK	(1<<(CORE_PIN27_BIT))
 217:F:\kalkulyator-workspace-v2\TeensyCore3\src\core_pins.h **** #define CORE_PIN28_BITMASK	(1<<(CORE_PIN28_BIT))
 218:F:\kalkulyator-workspace-v2\TeensyCore3\src\core_pins.h **** #define CORE_PIN29_BITMASK	(1<<(CORE_PIN29_BIT))
 219:F:\kalkulyator-workspace-v2\TeensyCore3\src\core_pins.h **** #define CORE_PIN30_BITMASK	(1<<(CORE_PIN30_BIT))
 220:F:\kalkulyator-workspace-v2\TeensyCore3\src\core_pins.h **** #define CORE_PIN31_BITMASK	(1<<(CORE_PIN31_BIT))
 221:F:\kalkulyator-workspace-v2\TeensyCore3\src\core_pins.h **** #define CORE_PIN32_BITMASK	(1<<(CORE_PIN32_BIT))
 222:F:\kalkulyator-workspace-v2\TeensyCore3\src\core_pins.h **** #define CORE_PIN33_BITMASK	(1<<(CORE_PIN33_BIT))
 223:F:\kalkulyator-workspace-v2\TeensyCore3\src\core_pins.h **** 
 224:F:\kalkulyator-workspace-v2\TeensyCore3\src\core_pins.h **** #define CORE_PIN0_PORTREG	GPIOB_PDOR
 225:F:\kalkulyator-workspace-v2\TeensyCore3\src\core_pins.h **** #define CORE_PIN1_PORTREG	GPIOB_PDOR
 226:F:\kalkulyator-workspace-v2\TeensyCore3\src\core_pins.h **** #define CORE_PIN2_PORTREG	GPIOD_PDOR
 227:F:\kalkulyator-workspace-v2\TeensyCore3\src\core_pins.h **** #define CORE_PIN3_PORTREG	GPIOA_PDOR
 228:F:\kalkulyator-workspace-v2\TeensyCore3\src\core_pins.h **** #define CORE_PIN4_PORTREG	GPIOA_PDOR
 229:F:\kalkulyator-workspace-v2\TeensyCore3\src\core_pins.h **** #define CORE_PIN5_PORTREG	GPIOD_PDOR
 230:F:\kalkulyator-workspace-v2\TeensyCore3\src\core_pins.h **** #define CORE_PIN6_PORTREG	GPIOD_PDOR
 231:F:\kalkulyator-workspace-v2\TeensyCore3\src\core_pins.h **** #define CORE_PIN7_PORTREG	GPIOD_PDOR
 232:F:\kalkulyator-workspace-v2\TeensyCore3\src\core_pins.h **** #define CORE_PIN8_PORTREG	GPIOD_PDOR
 233:F:\kalkulyator-workspace-v2\TeensyCore3\src\core_pins.h **** #define CORE_PIN9_PORTREG	GPIOC_PDOR
 234:F:\kalkulyator-workspace-v2\TeensyCore3\src\core_pins.h **** #define CORE_PIN10_PORTREG	GPIOC_PDOR
 235:F:\kalkulyator-workspace-v2\TeensyCore3\src\core_pins.h **** #define CORE_PIN11_PORTREG	GPIOC_PDOR
 236:F:\kalkulyator-workspace-v2\TeensyCore3\src\core_pins.h **** #define CORE_PIN12_PORTREG	GPIOC_PDOR
 237:F:\kalkulyator-workspace-v2\TeensyCore3\src\core_pins.h **** #define CORE_PIN13_PORTREG	GPIOC_PDOR
 238:F:\kalkulyator-workspace-v2\TeensyCore3\src\core_pins.h **** #define CORE_PIN14_PORTREG	GPIOD_PDOR
 239:F:\kalkulyator-workspace-v2\TeensyCore3\src\core_pins.h **** #define CORE_PIN15_PORTREG	GPIOC_PDOR
 240:F:\kalkulyator-workspace-v2\TeensyCore3\src\core_pins.h **** #define CORE_PIN16_PORTREG	GPIOB_PDOR
 241:F:\kalkulyator-workspace-v2\TeensyCore3\src\core_pins.h **** #define CORE_PIN17_PORTREG	GPIOB_PDOR
 242:F:\kalkulyator-workspace-v2\TeensyCore3\src\core_pins.h **** #define CORE_PIN18_PORTREG	GPIOB_PDOR
 243:F:\kalkulyator-workspace-v2\TeensyCore3\src\core_pins.h **** #define CORE_PIN19_PORTREG	GPIOB_PDOR
 244:F:\kalkulyator-workspace-v2\TeensyCore3\src\core_pins.h **** #define CORE_PIN20_PORTREG	GPIOD_PDOR
 245:F:\kalkulyator-workspace-v2\TeensyCore3\src\core_pins.h **** #define CORE_PIN21_PORTREG	GPIOD_PDOR
 246:F:\kalkulyator-workspace-v2\TeensyCore3\src\core_pins.h **** #define CORE_PIN22_PORTREG	GPIOC_PDOR
 247:F:\kalkulyator-workspace-v2\TeensyCore3\src\core_pins.h **** #define CORE_PIN23_PORTREG	GPIOC_PDOR
 248:F:\kalkulyator-workspace-v2\TeensyCore3\src\core_pins.h **** #define CORE_PIN24_PORTREG	GPIOA_PDOR
 249:F:\kalkulyator-workspace-v2\TeensyCore3\src\core_pins.h **** #define CORE_PIN25_PORTREG	GPIOB_PDOR
 250:F:\kalkulyator-workspace-v2\TeensyCore3\src\core_pins.h **** #define CORE_PIN26_PORTREG	GPIOE_PDOR
 251:F:\kalkulyator-workspace-v2\TeensyCore3\src\core_pins.h **** #define CORE_PIN27_PORTREG	GPIOC_PDOR
 252:F:\kalkulyator-workspace-v2\TeensyCore3\src\core_pins.h **** #define CORE_PIN28_PORTREG	GPIOC_PDOR
 253:F:\kalkulyator-workspace-v2\TeensyCore3\src\core_pins.h **** #define CORE_PIN29_PORTREG	GPIOC_PDOR
 254:F:\kalkulyator-workspace-v2\TeensyCore3\src\core_pins.h **** #define CORE_PIN30_PORTREG	GPIOC_PDOR
 255:F:\kalkulyator-workspace-v2\TeensyCore3\src\core_pins.h **** #define CORE_PIN31_PORTREG	GPIOE_PDOR
 256:F:\kalkulyator-workspace-v2\TeensyCore3\src\core_pins.h **** #define CORE_PIN32_PORTREG	GPIOB_PDOR
 257:F:\kalkulyator-workspace-v2\TeensyCore3\src\core_pins.h **** #define CORE_PIN33_PORTREG	GPIOA_PDOR
 258:F:\kalkulyator-workspace-v2\TeensyCore3\src\core_pins.h **** 
 259:F:\kalkulyator-workspace-v2\TeensyCore3\src\core_pins.h **** #define CORE_PIN0_PORTSET	GPIOB_PSOR
 260:F:\kalkulyator-workspace-v2\TeensyCore3\src\core_pins.h **** #define CORE_PIN1_PORTSET	GPIOB_PSOR
 261:F:\kalkulyator-workspace-v2\TeensyCore3\src\core_pins.h **** #define CORE_PIN2_PORTSET	GPIOD_PSOR
 262:F:\kalkulyator-workspace-v2\TeensyCore3\src\core_pins.h **** #define CORE_PIN3_PORTSET	GPIOA_PSOR
 263:F:\kalkulyator-workspace-v2\TeensyCore3\src\core_pins.h **** #define CORE_PIN4_PORTSET	GPIOA_PSOR
 264:F:\kalkulyator-workspace-v2\TeensyCore3\src\core_pins.h **** #define CORE_PIN5_PORTSET	GPIOD_PSOR
 265:F:\kalkulyator-workspace-v2\TeensyCore3\src\core_pins.h **** #define CORE_PIN6_PORTSET	GPIOD_PSOR
 266:F:\kalkulyator-workspace-v2\TeensyCore3\src\core_pins.h **** #define CORE_PIN7_PORTSET	GPIOD_PSOR
 267:F:\kalkulyator-workspace-v2\TeensyCore3\src\core_pins.h **** #define CORE_PIN8_PORTSET	GPIOD_PSOR
 268:F:\kalkulyator-workspace-v2\TeensyCore3\src\core_pins.h **** #define CORE_PIN9_PORTSET	GPIOC_PSOR
 269:F:\kalkulyator-workspace-v2\TeensyCore3\src\core_pins.h **** #define CORE_PIN10_PORTSET	GPIOC_PSOR
 270:F:\kalkulyator-workspace-v2\TeensyCore3\src\core_pins.h **** #define CORE_PIN11_PORTSET	GPIOC_PSOR
 271:F:\kalkulyator-workspace-v2\TeensyCore3\src\core_pins.h **** #define CORE_PIN12_PORTSET	GPIOC_PSOR
 272:F:\kalkulyator-workspace-v2\TeensyCore3\src\core_pins.h **** #define CORE_PIN13_PORTSET	GPIOC_PSOR
 273:F:\kalkulyator-workspace-v2\TeensyCore3\src\core_pins.h **** #define CORE_PIN14_PORTSET	GPIOD_PSOR
 274:F:\kalkulyator-workspace-v2\TeensyCore3\src\core_pins.h **** #define CORE_PIN15_PORTSET	GPIOC_PSOR
 275:F:\kalkulyator-workspace-v2\TeensyCore3\src\core_pins.h **** #define CORE_PIN16_PORTSET	GPIOB_PSOR
 276:F:\kalkulyator-workspace-v2\TeensyCore3\src\core_pins.h **** #define CORE_PIN17_PORTSET	GPIOB_PSOR
 277:F:\kalkulyator-workspace-v2\TeensyCore3\src\core_pins.h **** #define CORE_PIN18_PORTSET	GPIOB_PSOR
 278:F:\kalkulyator-workspace-v2\TeensyCore3\src\core_pins.h **** #define CORE_PIN19_PORTSET	GPIOB_PSOR
 279:F:\kalkulyator-workspace-v2\TeensyCore3\src\core_pins.h **** #define CORE_PIN20_PORTSET	GPIOD_PSOR
 280:F:\kalkulyator-workspace-v2\TeensyCore3\src\core_pins.h **** #define CORE_PIN21_PORTSET	GPIOD_PSOR
 281:F:\kalkulyator-workspace-v2\TeensyCore3\src\core_pins.h **** #define CORE_PIN22_PORTSET	GPIOC_PSOR
 282:F:\kalkulyator-workspace-v2\TeensyCore3\src\core_pins.h **** #define CORE_PIN23_PORTSET	GPIOC_PSOR
 283:F:\kalkulyator-workspace-v2\TeensyCore3\src\core_pins.h **** #define CORE_PIN24_PORTSET	GPIOA_PSOR
 284:F:\kalkulyator-workspace-v2\TeensyCore3\src\core_pins.h **** #define CORE_PIN25_PORTSET	GPIOB_PSOR
 285:F:\kalkulyator-workspace-v2\TeensyCore3\src\core_pins.h **** #define CORE_PIN26_PORTSET	GPIOE_PSOR
 286:F:\kalkulyator-workspace-v2\TeensyCore3\src\core_pins.h **** #define CORE_PIN27_PORTSET	GPIOC_PSOR
 287:F:\kalkulyator-workspace-v2\TeensyCore3\src\core_pins.h **** #define CORE_PIN28_PORTSET	GPIOC_PSOR
 288:F:\kalkulyator-workspace-v2\TeensyCore3\src\core_pins.h **** #define CORE_PIN29_PORTSET	GPIOC_PSOR
 289:F:\kalkulyator-workspace-v2\TeensyCore3\src\core_pins.h **** #define CORE_PIN30_PORTSET	GPIOC_PSOR
 290:F:\kalkulyator-workspace-v2\TeensyCore3\src\core_pins.h **** #define CORE_PIN31_PORTSET	GPIOE_PSOR
 291:F:\kalkulyator-workspace-v2\TeensyCore3\src\core_pins.h **** #define CORE_PIN32_PORTSET	GPIOB_PSOR
 292:F:\kalkulyator-workspace-v2\TeensyCore3\src\core_pins.h **** #define CORE_PIN33_PORTSET	GPIOA_PSOR
 293:F:\kalkulyator-workspace-v2\TeensyCore3\src\core_pins.h **** 
 294:F:\kalkulyator-workspace-v2\TeensyCore3\src\core_pins.h **** #define CORE_PIN0_PORTCLEAR	GPIOB_PCOR
 295:F:\kalkulyator-workspace-v2\TeensyCore3\src\core_pins.h **** #define CORE_PIN1_PORTCLEAR	GPIOB_PCOR
 296:F:\kalkulyator-workspace-v2\TeensyCore3\src\core_pins.h **** #define CORE_PIN2_PORTCLEAR	GPIOD_PCOR
 297:F:\kalkulyator-workspace-v2\TeensyCore3\src\core_pins.h **** #define CORE_PIN3_PORTCLEAR	GPIOA_PCOR
 298:F:\kalkulyator-workspace-v2\TeensyCore3\src\core_pins.h **** #define CORE_PIN4_PORTCLEAR	GPIOA_PCOR
 299:F:\kalkulyator-workspace-v2\TeensyCore3\src\core_pins.h **** #define CORE_PIN5_PORTCLEAR	GPIOD_PCOR
 300:F:\kalkulyator-workspace-v2\TeensyCore3\src\core_pins.h **** #define CORE_PIN6_PORTCLEAR	GPIOD_PCOR
 301:F:\kalkulyator-workspace-v2\TeensyCore3\src\core_pins.h **** #define CORE_PIN7_PORTCLEAR	GPIOD_PCOR
 302:F:\kalkulyator-workspace-v2\TeensyCore3\src\core_pins.h **** #define CORE_PIN8_PORTCLEAR	GPIOD_PCOR
 303:F:\kalkulyator-workspace-v2\TeensyCore3\src\core_pins.h **** #define CORE_PIN9_PORTCLEAR	GPIOC_PCOR
 304:F:\kalkulyator-workspace-v2\TeensyCore3\src\core_pins.h **** #define CORE_PIN10_PORTCLEAR	GPIOC_PCOR
 305:F:\kalkulyator-workspace-v2\TeensyCore3\src\core_pins.h **** #define CORE_PIN11_PORTCLEAR	GPIOC_PCOR
 306:F:\kalkulyator-workspace-v2\TeensyCore3\src\core_pins.h **** #define CORE_PIN12_PORTCLEAR	GPIOC_PCOR
 307:F:\kalkulyator-workspace-v2\TeensyCore3\src\core_pins.h **** #define CORE_PIN13_PORTCLEAR	GPIOC_PCOR
 308:F:\kalkulyator-workspace-v2\TeensyCore3\src\core_pins.h **** #define CORE_PIN14_PORTCLEAR	GPIOD_PCOR
 309:F:\kalkulyator-workspace-v2\TeensyCore3\src\core_pins.h **** #define CORE_PIN15_PORTCLEAR	GPIOC_PCOR
 310:F:\kalkulyator-workspace-v2\TeensyCore3\src\core_pins.h **** #define CORE_PIN16_PORTCLEAR	GPIOB_PCOR
 311:F:\kalkulyator-workspace-v2\TeensyCore3\src\core_pins.h **** #define CORE_PIN17_PORTCLEAR	GPIOB_PCOR
 312:F:\kalkulyator-workspace-v2\TeensyCore3\src\core_pins.h **** #define CORE_PIN18_PORTCLEAR	GPIOB_PCOR
 313:F:\kalkulyator-workspace-v2\TeensyCore3\src\core_pins.h **** #define CORE_PIN19_PORTCLEAR	GPIOB_PCOR
 314:F:\kalkulyator-workspace-v2\TeensyCore3\src\core_pins.h **** #define CORE_PIN20_PORTCLEAR	GPIOD_PCOR
 315:F:\kalkulyator-workspace-v2\TeensyCore3\src\core_pins.h **** #define CORE_PIN21_PORTCLEAR	GPIOD_PCOR
 316:F:\kalkulyator-workspace-v2\TeensyCore3\src\core_pins.h **** #define CORE_PIN22_PORTCLEAR	GPIOC_PCOR
 317:F:\kalkulyator-workspace-v2\TeensyCore3\src\core_pins.h **** #define CORE_PIN23_PORTCLEAR	GPIOC_PCOR
 318:F:\kalkulyator-workspace-v2\TeensyCore3\src\core_pins.h **** #define CORE_PIN24_PORTCLEAR	GPIOA_PCOR
 319:F:\kalkulyator-workspace-v2\TeensyCore3\src\core_pins.h **** #define CORE_PIN25_PORTCLEAR	GPIOB_PCOR
 320:F:\kalkulyator-workspace-v2\TeensyCore3\src\core_pins.h **** #define CORE_PIN26_PORTCLEAR	GPIOE_PCOR
 321:F:\kalkulyator-workspace-v2\TeensyCore3\src\core_pins.h **** #define CORE_PIN27_PORTCLEAR	GPIOC_PCOR
 322:F:\kalkulyator-workspace-v2\TeensyCore3\src\core_pins.h **** #define CORE_PIN28_PORTCLEAR	GPIOC_PCOR
 323:F:\kalkulyator-workspace-v2\TeensyCore3\src\core_pins.h **** #define CORE_PIN29_PORTCLEAR	GPIOC_PCOR
 324:F:\kalkulyator-workspace-v2\TeensyCore3\src\core_pins.h **** #define CORE_PIN30_PORTCLEAR	GPIOC_PCOR
 325:F:\kalkulyator-workspace-v2\TeensyCore3\src\core_pins.h **** #define CORE_PIN31_PORTCLEAR	GPIOE_PCOR
 326:F:\kalkulyator-workspace-v2\TeensyCore3\src\core_pins.h **** #define CORE_PIN32_PORTCLEAR	GPIOB_PCOR
 327:F:\kalkulyator-workspace-v2\TeensyCore3\src\core_pins.h **** #define CORE_PIN33_PORTCLEAR	GPIOA_PCOR
 328:F:\kalkulyator-workspace-v2\TeensyCore3\src\core_pins.h **** 
 329:F:\kalkulyator-workspace-v2\TeensyCore3\src\core_pins.h **** #define CORE_PIN0_DDRREG	GPIOB_PDDR
 330:F:\kalkulyator-workspace-v2\TeensyCore3\src\core_pins.h **** #define CORE_PIN1_DDRREG	GPIOB_PDDR
 331:F:\kalkulyator-workspace-v2\TeensyCore3\src\core_pins.h **** #define CORE_PIN2_DDRREG	GPIOD_PDDR
 332:F:\kalkulyator-workspace-v2\TeensyCore3\src\core_pins.h **** #define CORE_PIN3_DDRREG	GPIOA_PDDR
 333:F:\kalkulyator-workspace-v2\TeensyCore3\src\core_pins.h **** #define CORE_PIN4_DDRREG	GPIOA_PDDR
 334:F:\kalkulyator-workspace-v2\TeensyCore3\src\core_pins.h **** #define CORE_PIN5_DDRREG	GPIOD_PDDR
 335:F:\kalkulyator-workspace-v2\TeensyCore3\src\core_pins.h **** #define CORE_PIN6_DDRREG	GPIOD_PDDR
 336:F:\kalkulyator-workspace-v2\TeensyCore3\src\core_pins.h **** #define CORE_PIN7_DDRREG	GPIOD_PDDR
 337:F:\kalkulyator-workspace-v2\TeensyCore3\src\core_pins.h **** #define CORE_PIN8_DDRREG	GPIOD_PDDR
 338:F:\kalkulyator-workspace-v2\TeensyCore3\src\core_pins.h **** #define CORE_PIN9_DDRREG	GPIOC_PDDR
 339:F:\kalkulyator-workspace-v2\TeensyCore3\src\core_pins.h **** #define CORE_PIN10_DDRREG	GPIOC_PDDR
 340:F:\kalkulyator-workspace-v2\TeensyCore3\src\core_pins.h **** #define CORE_PIN11_DDRREG	GPIOC_PDDR
 341:F:\kalkulyator-workspace-v2\TeensyCore3\src\core_pins.h **** #define CORE_PIN12_DDRREG	GPIOC_PDDR
 342:F:\kalkulyator-workspace-v2\TeensyCore3\src\core_pins.h **** #define CORE_PIN13_DDRREG	GPIOC_PDDR
 343:F:\kalkulyator-workspace-v2\TeensyCore3\src\core_pins.h **** #define CORE_PIN14_DDRREG	GPIOD_PDDR
 344:F:\kalkulyator-workspace-v2\TeensyCore3\src\core_pins.h **** #define CORE_PIN15_DDRREG	GPIOC_PDDR
 345:F:\kalkulyator-workspace-v2\TeensyCore3\src\core_pins.h **** #define CORE_PIN16_DDRREG	GPIOB_PDDR
 346:F:\kalkulyator-workspace-v2\TeensyCore3\src\core_pins.h **** #define CORE_PIN17_DDRREG	GPIOB_PDDR
 347:F:\kalkulyator-workspace-v2\TeensyCore3\src\core_pins.h **** #define CORE_PIN18_DDRREG	GPIOB_PDDR
 348:F:\kalkulyator-workspace-v2\TeensyCore3\src\core_pins.h **** #define CORE_PIN19_DDRREG	GPIOB_PDDR
 349:F:\kalkulyator-workspace-v2\TeensyCore3\src\core_pins.h **** #define CORE_PIN20_DDRREG	GPIOD_PDDR
 350:F:\kalkulyator-workspace-v2\TeensyCore3\src\core_pins.h **** #define CORE_PIN21_DDRREG	GPIOD_PDDR
 351:F:\kalkulyator-workspace-v2\TeensyCore3\src\core_pins.h **** #define CORE_PIN22_DDRREG	GPIOC_PDDR
 352:F:\kalkulyator-workspace-v2\TeensyCore3\src\core_pins.h **** #define CORE_PIN23_DDRREG	GPIOC_PDDR
 353:F:\kalkulyator-workspace-v2\TeensyCore3\src\core_pins.h **** #define CORE_PIN24_DDRREG	GPIOA_PDDR
 354:F:\kalkulyator-workspace-v2\TeensyCore3\src\core_pins.h **** #define CORE_PIN25_DDRREG	GPIOB_PDDR
 355:F:\kalkulyator-workspace-v2\TeensyCore3\src\core_pins.h **** #define CORE_PIN26_DDRREG	GPIOE_PDDR
 356:F:\kalkulyator-workspace-v2\TeensyCore3\src\core_pins.h **** #define CORE_PIN27_DDRREG	GPIOC_PDDR
 357:F:\kalkulyator-workspace-v2\TeensyCore3\src\core_pins.h **** #define CORE_PIN28_DDRREG	GPIOC_PDDR
 358:F:\kalkulyator-workspace-v2\TeensyCore3\src\core_pins.h **** #define CORE_PIN29_DDRREG	GPIOC_PDDR
 359:F:\kalkulyator-workspace-v2\TeensyCore3\src\core_pins.h **** #define CORE_PIN30_DDRREG	GPIOC_PDDR
 360:F:\kalkulyator-workspace-v2\TeensyCore3\src\core_pins.h **** #define CORE_PIN31_DDRREG	GPIOE_PDDR
 361:F:\kalkulyator-workspace-v2\TeensyCore3\src\core_pins.h **** #define CORE_PIN32_DDRREG	GPIOB_PDDR
 362:F:\kalkulyator-workspace-v2\TeensyCore3\src\core_pins.h **** #define CORE_PIN33_DDRREG	GPIOA_PDDR
 363:F:\kalkulyator-workspace-v2\TeensyCore3\src\core_pins.h **** 
 364:F:\kalkulyator-workspace-v2\TeensyCore3\src\core_pins.h **** #define CORE_PIN0_PINREG	GPIOB_PDIR
 365:F:\kalkulyator-workspace-v2\TeensyCore3\src\core_pins.h **** #define CORE_PIN1_PINREG	GPIOB_PDIR
 366:F:\kalkulyator-workspace-v2\TeensyCore3\src\core_pins.h **** #define CORE_PIN2_PINREG	GPIOD_PDIR
 367:F:\kalkulyator-workspace-v2\TeensyCore3\src\core_pins.h **** #define CORE_PIN3_PINREG	GPIOA_PDIR
 368:F:\kalkulyator-workspace-v2\TeensyCore3\src\core_pins.h **** #define CORE_PIN4_PINREG	GPIOA_PDIR
 369:F:\kalkulyator-workspace-v2\TeensyCore3\src\core_pins.h **** #define CORE_PIN5_PINREG	GPIOD_PDIR
 370:F:\kalkulyator-workspace-v2\TeensyCore3\src\core_pins.h **** #define CORE_PIN6_PINREG	GPIOD_PDIR
 371:F:\kalkulyator-workspace-v2\TeensyCore3\src\core_pins.h **** #define CORE_PIN7_PINREG	GPIOD_PDIR
 372:F:\kalkulyator-workspace-v2\TeensyCore3\src\core_pins.h **** #define CORE_PIN8_PINREG	GPIOD_PDIR
 373:F:\kalkulyator-workspace-v2\TeensyCore3\src\core_pins.h **** #define CORE_PIN9_PINREG	GPIOC_PDIR
 374:F:\kalkulyator-workspace-v2\TeensyCore3\src\core_pins.h **** #define CORE_PIN10_PINREG	GPIOC_PDIR
 375:F:\kalkulyator-workspace-v2\TeensyCore3\src\core_pins.h **** #define CORE_PIN11_PINREG	GPIOC_PDIR
 376:F:\kalkulyator-workspace-v2\TeensyCore3\src\core_pins.h **** #define CORE_PIN12_PINREG	GPIOC_PDIR
 377:F:\kalkulyator-workspace-v2\TeensyCore3\src\core_pins.h **** #define CORE_PIN13_PINREG	GPIOC_PDIR
 378:F:\kalkulyator-workspace-v2\TeensyCore3\src\core_pins.h **** #define CORE_PIN14_PINREG	GPIOD_PDIR
 379:F:\kalkulyator-workspace-v2\TeensyCore3\src\core_pins.h **** #define CORE_PIN15_PINREG	GPIOC_PDIR
 380:F:\kalkulyator-workspace-v2\TeensyCore3\src\core_pins.h **** #define CORE_PIN16_PINREG	GPIOB_PDIR
 381:F:\kalkulyator-workspace-v2\TeensyCore3\src\core_pins.h **** #define CORE_PIN17_PINREG	GPIOB_PDIR
 382:F:\kalkulyator-workspace-v2\TeensyCore3\src\core_pins.h **** #define CORE_PIN18_PINREG	GPIOB_PDIR
 383:F:\kalkulyator-workspace-v2\TeensyCore3\src\core_pins.h **** #define CORE_PIN19_PINREG	GPIOB_PDIR
 384:F:\kalkulyator-workspace-v2\TeensyCore3\src\core_pins.h **** #define CORE_PIN20_PINREG	GPIOD_PDIR
 385:F:\kalkulyator-workspace-v2\TeensyCore3\src\core_pins.h **** #define CORE_PIN21_PINREG	GPIOD_PDIR
 386:F:\kalkulyator-workspace-v2\TeensyCore3\src\core_pins.h **** #define CORE_PIN22_PINREG	GPIOC_PDIR
 387:F:\kalkulyator-workspace-v2\TeensyCore3\src\core_pins.h **** #define CORE_PIN23_PINREG	GPIOC_PDIR
 388:F:\kalkulyator-workspace-v2\TeensyCore3\src\core_pins.h **** #define CORE_PIN24_PINREG	GPIOA_PDIR
 389:F:\kalkulyator-workspace-v2\TeensyCore3\src\core_pins.h **** #define CORE_PIN25_PINREG	GPIOB_PDIR
 390:F:\kalkulyator-workspace-v2\TeensyCore3\src\core_pins.h **** #define CORE_PIN26_PINREG	GPIOE_PDIR
 391:F:\kalkulyator-workspace-v2\TeensyCore3\src\core_pins.h **** #define CORE_PIN27_PINREG	GPIOC_PDIR
 392:F:\kalkulyator-workspace-v2\TeensyCore3\src\core_pins.h **** #define CORE_PIN28_PINREG	GPIOC_PDIR
 393:F:\kalkulyator-workspace-v2\TeensyCore3\src\core_pins.h **** #define CORE_PIN29_PINREG	GPIOC_PDIR
 394:F:\kalkulyator-workspace-v2\TeensyCore3\src\core_pins.h **** #define CORE_PIN30_PINREG	GPIOC_PDIR
 395:F:\kalkulyator-workspace-v2\TeensyCore3\src\core_pins.h **** #define CORE_PIN31_PINREG	GPIOE_PDIR
 396:F:\kalkulyator-workspace-v2\TeensyCore3\src\core_pins.h **** #define CORE_PIN32_PINREG	GPIOB_PDIR
 397:F:\kalkulyator-workspace-v2\TeensyCore3\src\core_pins.h **** #define CORE_PIN33_PINREG	GPIOA_PDIR
 398:F:\kalkulyator-workspace-v2\TeensyCore3\src\core_pins.h **** 
 399:F:\kalkulyator-workspace-v2\TeensyCore3\src\core_pins.h **** #define CORE_PIN0_CONFIG	PORTB_PCR16
 400:F:\kalkulyator-workspace-v2\TeensyCore3\src\core_pins.h **** #define CORE_PIN1_CONFIG	PORTB_PCR17
 401:F:\kalkulyator-workspace-v2\TeensyCore3\src\core_pins.h **** #define CORE_PIN2_CONFIG	PORTD_PCR0
 402:F:\kalkulyator-workspace-v2\TeensyCore3\src\core_pins.h **** #define CORE_PIN3_CONFIG	PORTA_PCR12
 403:F:\kalkulyator-workspace-v2\TeensyCore3\src\core_pins.h **** #define CORE_PIN4_CONFIG	PORTA_PCR13
 404:F:\kalkulyator-workspace-v2\TeensyCore3\src\core_pins.h **** #define CORE_PIN5_CONFIG	PORTD_PCR7
 405:F:\kalkulyator-workspace-v2\TeensyCore3\src\core_pins.h **** #define CORE_PIN6_CONFIG	PORTD_PCR4
 406:F:\kalkulyator-workspace-v2\TeensyCore3\src\core_pins.h **** #define CORE_PIN7_CONFIG	PORTD_PCR2
 407:F:\kalkulyator-workspace-v2\TeensyCore3\src\core_pins.h **** #define CORE_PIN8_CONFIG	PORTD_PCR3
 408:F:\kalkulyator-workspace-v2\TeensyCore3\src\core_pins.h **** #define CORE_PIN9_CONFIG	PORTC_PCR3
 409:F:\kalkulyator-workspace-v2\TeensyCore3\src\core_pins.h **** #define CORE_PIN10_CONFIG	PORTC_PCR4
 410:F:\kalkulyator-workspace-v2\TeensyCore3\src\core_pins.h **** #define CORE_PIN11_CONFIG	PORTC_PCR6
 411:F:\kalkulyator-workspace-v2\TeensyCore3\src\core_pins.h **** #define CORE_PIN12_CONFIG	PORTC_PCR7
 412:F:\kalkulyator-workspace-v2\TeensyCore3\src\core_pins.h **** #define CORE_PIN13_CONFIG	PORTC_PCR5
 413:F:\kalkulyator-workspace-v2\TeensyCore3\src\core_pins.h **** #define CORE_PIN14_CONFIG	PORTD_PCR1
 414:F:\kalkulyator-workspace-v2\TeensyCore3\src\core_pins.h **** #define CORE_PIN15_CONFIG	PORTC_PCR0
 415:F:\kalkulyator-workspace-v2\TeensyCore3\src\core_pins.h **** #define CORE_PIN16_CONFIG	PORTB_PCR0
 416:F:\kalkulyator-workspace-v2\TeensyCore3\src\core_pins.h **** #define CORE_PIN17_CONFIG	PORTB_PCR1
 417:F:\kalkulyator-workspace-v2\TeensyCore3\src\core_pins.h **** #define CORE_PIN18_CONFIG	PORTB_PCR3
 418:F:\kalkulyator-workspace-v2\TeensyCore3\src\core_pins.h **** #define CORE_PIN19_CONFIG	PORTB_PCR2
 419:F:\kalkulyator-workspace-v2\TeensyCore3\src\core_pins.h **** #define CORE_PIN20_CONFIG	PORTD_PCR5
 420:F:\kalkulyator-workspace-v2\TeensyCore3\src\core_pins.h **** #define CORE_PIN21_CONFIG	PORTD_PCR6
 421:F:\kalkulyator-workspace-v2\TeensyCore3\src\core_pins.h **** #define CORE_PIN22_CONFIG	PORTC_PCR1
 422:F:\kalkulyator-workspace-v2\TeensyCore3\src\core_pins.h **** #define CORE_PIN23_CONFIG	PORTC_PCR2
 423:F:\kalkulyator-workspace-v2\TeensyCore3\src\core_pins.h **** #define CORE_PIN24_CONFIG	PORTA_PCR5
 424:F:\kalkulyator-workspace-v2\TeensyCore3\src\core_pins.h **** #define CORE_PIN25_CONFIG	PORTB_PCR19
 425:F:\kalkulyator-workspace-v2\TeensyCore3\src\core_pins.h **** #define CORE_PIN26_CONFIG	PORTE_PCR1
 426:F:\kalkulyator-workspace-v2\TeensyCore3\src\core_pins.h **** #define CORE_PIN27_CONFIG	PORTC_PCR9
 427:F:\kalkulyator-workspace-v2\TeensyCore3\src\core_pins.h **** #define CORE_PIN28_CONFIG	PORTC_PCR8
 428:F:\kalkulyator-workspace-v2\TeensyCore3\src\core_pins.h **** #define CORE_PIN29_CONFIG	PORTC_PCR10
 429:F:\kalkulyator-workspace-v2\TeensyCore3\src\core_pins.h **** #define CORE_PIN30_CONFIG	PORTC_PCR11
 430:F:\kalkulyator-workspace-v2\TeensyCore3\src\core_pins.h **** #define CORE_PIN31_CONFIG	PORTE_PCR0
 431:F:\kalkulyator-workspace-v2\TeensyCore3\src\core_pins.h **** #define CORE_PIN32_CONFIG	PORTB_PCR18
 432:F:\kalkulyator-workspace-v2\TeensyCore3\src\core_pins.h **** #define CORE_PIN33_CONFIG	PORTA_PCR4
 433:F:\kalkulyator-workspace-v2\TeensyCore3\src\core_pins.h **** 
 434:F:\kalkulyator-workspace-v2\TeensyCore3\src\core_pins.h **** #define CORE_ADC0_PIN		14
 435:F:\kalkulyator-workspace-v2\TeensyCore3\src\core_pins.h **** #define CORE_ADC1_PIN		15
 436:F:\kalkulyator-workspace-v2\TeensyCore3\src\core_pins.h **** #define CORE_ADC2_PIN		16
 437:F:\kalkulyator-workspace-v2\TeensyCore3\src\core_pins.h **** #define CORE_ADC3_PIN		17
 438:F:\kalkulyator-workspace-v2\TeensyCore3\src\core_pins.h **** #define CORE_ADC4_PIN		18
 439:F:\kalkulyator-workspace-v2\TeensyCore3\src\core_pins.h **** #define CORE_ADC5_PIN		19
 440:F:\kalkulyator-workspace-v2\TeensyCore3\src\core_pins.h **** #define CORE_ADC6_PIN		20
 441:F:\kalkulyator-workspace-v2\TeensyCore3\src\core_pins.h **** #define CORE_ADC7_PIN		21
 442:F:\kalkulyator-workspace-v2\TeensyCore3\src\core_pins.h **** #define CORE_ADC8_PIN		22
 443:F:\kalkulyator-workspace-v2\TeensyCore3\src\core_pins.h **** #define CORE_ADC9_PIN		23
 444:F:\kalkulyator-workspace-v2\TeensyCore3\src\core_pins.h **** #define CORE_ADC10_PIN		34
 445:F:\kalkulyator-workspace-v2\TeensyCore3\src\core_pins.h **** #define CORE_ADC11_PIN		35
 446:F:\kalkulyator-workspace-v2\TeensyCore3\src\core_pins.h **** #define CORE_ADC12_PIN		36
 447:F:\kalkulyator-workspace-v2\TeensyCore3\src\core_pins.h **** #define CORE_ADC13_PIN		37
 448:F:\kalkulyator-workspace-v2\TeensyCore3\src\core_pins.h **** 
 449:F:\kalkulyator-workspace-v2\TeensyCore3\src\core_pins.h **** #define CORE_RXD0_PIN		0
 450:F:\kalkulyator-workspace-v2\TeensyCore3\src\core_pins.h **** #define CORE_TXD0_PIN		1
 451:F:\kalkulyator-workspace-v2\TeensyCore3\src\core_pins.h **** #define CORE_RXD1_PIN		9
 452:F:\kalkulyator-workspace-v2\TeensyCore3\src\core_pins.h **** #define CORE_TXD1_PIN		10
 453:F:\kalkulyator-workspace-v2\TeensyCore3\src\core_pins.h **** #define CORE_RXD2_PIN		7
 454:F:\kalkulyator-workspace-v2\TeensyCore3\src\core_pins.h **** #define CORE_TXD2_PIN		8
 455:F:\kalkulyator-workspace-v2\TeensyCore3\src\core_pins.h **** 
 456:F:\kalkulyator-workspace-v2\TeensyCore3\src\core_pins.h **** #define CORE_INT0_PIN		0
 457:F:\kalkulyator-workspace-v2\TeensyCore3\src\core_pins.h **** #define CORE_INT1_PIN		1
 458:F:\kalkulyator-workspace-v2\TeensyCore3\src\core_pins.h **** #define CORE_INT2_PIN		2
 459:F:\kalkulyator-workspace-v2\TeensyCore3\src\core_pins.h **** #define CORE_INT3_PIN		3
 460:F:\kalkulyator-workspace-v2\TeensyCore3\src\core_pins.h **** #define CORE_INT4_PIN		4
 461:F:\kalkulyator-workspace-v2\TeensyCore3\src\core_pins.h **** #define CORE_INT5_PIN		5
 462:F:\kalkulyator-workspace-v2\TeensyCore3\src\core_pins.h **** #define CORE_INT6_PIN		6
 463:F:\kalkulyator-workspace-v2\TeensyCore3\src\core_pins.h **** #define CORE_INT7_PIN		7
 464:F:\kalkulyator-workspace-v2\TeensyCore3\src\core_pins.h **** #define CORE_INT8_PIN		8
 465:F:\kalkulyator-workspace-v2\TeensyCore3\src\core_pins.h **** #define CORE_INT9_PIN		9
 466:F:\kalkulyator-workspace-v2\TeensyCore3\src\core_pins.h **** #define CORE_INT10_PIN		10
 467:F:\kalkulyator-workspace-v2\TeensyCore3\src\core_pins.h **** #define CORE_INT11_PIN		11
 468:F:\kalkulyator-workspace-v2\TeensyCore3\src\core_pins.h **** #define CORE_INT12_PIN		12
 469:F:\kalkulyator-workspace-v2\TeensyCore3\src\core_pins.h **** #define CORE_INT13_PIN		13
 470:F:\kalkulyator-workspace-v2\TeensyCore3\src\core_pins.h **** #define CORE_INT14_PIN		14
 471:F:\kalkulyator-workspace-v2\TeensyCore3\src\core_pins.h **** #define CORE_INT15_PIN		15
 472:F:\kalkulyator-workspace-v2\TeensyCore3\src\core_pins.h **** #define CORE_INT16_PIN		16
 473:F:\kalkulyator-workspace-v2\TeensyCore3\src\core_pins.h **** #define CORE_INT17_PIN		17
 474:F:\kalkulyator-workspace-v2\TeensyCore3\src\core_pins.h **** #define CORE_INT18_PIN		18
 475:F:\kalkulyator-workspace-v2\TeensyCore3\src\core_pins.h **** #define CORE_INT19_PIN		19
 476:F:\kalkulyator-workspace-v2\TeensyCore3\src\core_pins.h **** #define CORE_INT20_PIN		20
 477:F:\kalkulyator-workspace-v2\TeensyCore3\src\core_pins.h **** #define CORE_INT21_PIN		21
 478:F:\kalkulyator-workspace-v2\TeensyCore3\src\core_pins.h **** #define CORE_INT22_PIN		22
 479:F:\kalkulyator-workspace-v2\TeensyCore3\src\core_pins.h **** #define CORE_INT23_PIN		23
 480:F:\kalkulyator-workspace-v2\TeensyCore3\src\core_pins.h **** #define CORE_INT24_PIN		24
 481:F:\kalkulyator-workspace-v2\TeensyCore3\src\core_pins.h **** #define CORE_INT25_PIN		25
 482:F:\kalkulyator-workspace-v2\TeensyCore3\src\core_pins.h **** #define CORE_INT26_PIN		26
 483:F:\kalkulyator-workspace-v2\TeensyCore3\src\core_pins.h **** #define CORE_INT27_PIN		27
 484:F:\kalkulyator-workspace-v2\TeensyCore3\src\core_pins.h **** #define CORE_INT28_PIN		28
 485:F:\kalkulyator-workspace-v2\TeensyCore3\src\core_pins.h **** #define CORE_INT29_PIN		29
 486:F:\kalkulyator-workspace-v2\TeensyCore3\src\core_pins.h **** #define CORE_INT30_PIN		30
 487:F:\kalkulyator-workspace-v2\TeensyCore3\src\core_pins.h **** #define CORE_INT31_PIN		31
 488:F:\kalkulyator-workspace-v2\TeensyCore3\src\core_pins.h **** #define CORE_INT32_PIN		32
 489:F:\kalkulyator-workspace-v2\TeensyCore3\src\core_pins.h **** #define CORE_INT33_PIN		33
 490:F:\kalkulyator-workspace-v2\TeensyCore3\src\core_pins.h **** #define CORE_INT_EVERY_PIN	1
 491:F:\kalkulyator-workspace-v2\TeensyCore3\src\core_pins.h **** 
 492:F:\kalkulyator-workspace-v2\TeensyCore3\src\core_pins.h **** 
 493:F:\kalkulyator-workspace-v2\TeensyCore3\src\core_pins.h **** #elif defined(__MKL26Z64__)
 494:F:\kalkulyator-workspace-v2\TeensyCore3\src\core_pins.h **** 
 495:F:\kalkulyator-workspace-v2\TeensyCore3\src\core_pins.h **** #define CORE_PIN0_BIT		16
 496:F:\kalkulyator-workspace-v2\TeensyCore3\src\core_pins.h **** #define CORE_PIN1_BIT		17
 497:F:\kalkulyator-workspace-v2\TeensyCore3\src\core_pins.h **** #define CORE_PIN2_BIT		0
 498:F:\kalkulyator-workspace-v2\TeensyCore3\src\core_pins.h **** #define CORE_PIN3_BIT		1
 499:F:\kalkulyator-workspace-v2\TeensyCore3\src\core_pins.h **** #define CORE_PIN4_BIT		2
 500:F:\kalkulyator-workspace-v2\TeensyCore3\src\core_pins.h **** #define CORE_PIN5_BIT		7
 501:F:\kalkulyator-workspace-v2\TeensyCore3\src\core_pins.h **** #define CORE_PIN6_BIT		4
 502:F:\kalkulyator-workspace-v2\TeensyCore3\src\core_pins.h **** #define CORE_PIN7_BIT		2
 503:F:\kalkulyator-workspace-v2\TeensyCore3\src\core_pins.h **** #define CORE_PIN8_BIT		3
 504:F:\kalkulyator-workspace-v2\TeensyCore3\src\core_pins.h **** #define CORE_PIN9_BIT		3
 505:F:\kalkulyator-workspace-v2\TeensyCore3\src\core_pins.h **** #define CORE_PIN10_BIT		4
 506:F:\kalkulyator-workspace-v2\TeensyCore3\src\core_pins.h **** #define CORE_PIN11_BIT		6
 507:F:\kalkulyator-workspace-v2\TeensyCore3\src\core_pins.h **** #define CORE_PIN12_BIT		7
 508:F:\kalkulyator-workspace-v2\TeensyCore3\src\core_pins.h **** #define CORE_PIN13_BIT		5
 509:F:\kalkulyator-workspace-v2\TeensyCore3\src\core_pins.h **** #define CORE_PIN14_BIT		1
 510:F:\kalkulyator-workspace-v2\TeensyCore3\src\core_pins.h **** #define CORE_PIN15_BIT		0
 511:F:\kalkulyator-workspace-v2\TeensyCore3\src\core_pins.h **** #define CORE_PIN16_BIT		0
 512:F:\kalkulyator-workspace-v2\TeensyCore3\src\core_pins.h **** #define CORE_PIN17_BIT		1
 513:F:\kalkulyator-workspace-v2\TeensyCore3\src\core_pins.h **** #define CORE_PIN18_BIT		3
 514:F:\kalkulyator-workspace-v2\TeensyCore3\src\core_pins.h **** #define CORE_PIN19_BIT		2
 515:F:\kalkulyator-workspace-v2\TeensyCore3\src\core_pins.h **** #define CORE_PIN20_BIT		5
 516:F:\kalkulyator-workspace-v2\TeensyCore3\src\core_pins.h **** #define CORE_PIN21_BIT		6
 517:F:\kalkulyator-workspace-v2\TeensyCore3\src\core_pins.h **** #define CORE_PIN22_BIT		1
 518:F:\kalkulyator-workspace-v2\TeensyCore3\src\core_pins.h **** #define CORE_PIN23_BIT		2
 519:F:\kalkulyator-workspace-v2\TeensyCore3\src\core_pins.h **** #define CORE_PIN24_BIT		20
 520:F:\kalkulyator-workspace-v2\TeensyCore3\src\core_pins.h **** #define CORE_PIN25_BIT		21
 521:F:\kalkulyator-workspace-v2\TeensyCore3\src\core_pins.h **** #define CORE_PIN26_BIT		30
 522:F:\kalkulyator-workspace-v2\TeensyCore3\src\core_pins.h **** 
 523:F:\kalkulyator-workspace-v2\TeensyCore3\src\core_pins.h **** #define CORE_PIN0_BITMASK	(1<<(CORE_PIN0_BIT))
 524:F:\kalkulyator-workspace-v2\TeensyCore3\src\core_pins.h **** #define CORE_PIN1_BITMASK	(1<<(CORE_PIN1_BIT))
 525:F:\kalkulyator-workspace-v2\TeensyCore3\src\core_pins.h **** #define CORE_PIN2_BITMASK	(1<<(CORE_PIN2_BIT))
 526:F:\kalkulyator-workspace-v2\TeensyCore3\src\core_pins.h **** #define CORE_PIN3_BITMASK	(1<<(CORE_PIN3_BIT))
 527:F:\kalkulyator-workspace-v2\TeensyCore3\src\core_pins.h **** #define CORE_PIN4_BITMASK	(1<<(CORE_PIN4_BIT))
 528:F:\kalkulyator-workspace-v2\TeensyCore3\src\core_pins.h **** #define CORE_PIN5_BITMASK	(1<<(CORE_PIN5_BIT))
 529:F:\kalkulyator-workspace-v2\TeensyCore3\src\core_pins.h **** #define CORE_PIN6_BITMASK	(1<<(CORE_PIN6_BIT))
 530:F:\kalkulyator-workspace-v2\TeensyCore3\src\core_pins.h **** #define CORE_PIN7_BITMASK	(1<<(CORE_PIN7_BIT))
 531:F:\kalkulyator-workspace-v2\TeensyCore3\src\core_pins.h **** #define CORE_PIN8_BITMASK	(1<<(CORE_PIN8_BIT))
 532:F:\kalkulyator-workspace-v2\TeensyCore3\src\core_pins.h **** #define CORE_PIN9_BITMASK	(1<<(CORE_PIN9_BIT))
 533:F:\kalkulyator-workspace-v2\TeensyCore3\src\core_pins.h **** #define CORE_PIN10_BITMASK	(1<<(CORE_PIN10_BIT))
 534:F:\kalkulyator-workspace-v2\TeensyCore3\src\core_pins.h **** #define CORE_PIN11_BITMASK	(1<<(CORE_PIN11_BIT))
 535:F:\kalkulyator-workspace-v2\TeensyCore3\src\core_pins.h **** #define CORE_PIN12_BITMASK	(1<<(CORE_PIN12_BIT))
 536:F:\kalkulyator-workspace-v2\TeensyCore3\src\core_pins.h **** #define CORE_PIN13_BITMASK	(1<<(CORE_PIN13_BIT))
 537:F:\kalkulyator-workspace-v2\TeensyCore3\src\core_pins.h **** #define CORE_PIN14_BITMASK	(1<<(CORE_PIN14_BIT))
 538:F:\kalkulyator-workspace-v2\TeensyCore3\src\core_pins.h **** #define CORE_PIN15_BITMASK	(1<<(CORE_PIN15_BIT))
 539:F:\kalkulyator-workspace-v2\TeensyCore3\src\core_pins.h **** #define CORE_PIN16_BITMASK	(1<<(CORE_PIN16_BIT))
 540:F:\kalkulyator-workspace-v2\TeensyCore3\src\core_pins.h **** #define CORE_PIN17_BITMASK	(1<<(CORE_PIN17_BIT))
 541:F:\kalkulyator-workspace-v2\TeensyCore3\src\core_pins.h **** #define CORE_PIN18_BITMASK	(1<<(CORE_PIN18_BIT))
 542:F:\kalkulyator-workspace-v2\TeensyCore3\src\core_pins.h **** #define CORE_PIN19_BITMASK	(1<<(CORE_PIN19_BIT))
 543:F:\kalkulyator-workspace-v2\TeensyCore3\src\core_pins.h **** #define CORE_PIN20_BITMASK	(1<<(CORE_PIN20_BIT))
 544:F:\kalkulyator-workspace-v2\TeensyCore3\src\core_pins.h **** #define CORE_PIN21_BITMASK	(1<<(CORE_PIN21_BIT))
 545:F:\kalkulyator-workspace-v2\TeensyCore3\src\core_pins.h **** #define CORE_PIN22_BITMASK	(1<<(CORE_PIN22_BIT))
 546:F:\kalkulyator-workspace-v2\TeensyCore3\src\core_pins.h **** #define CORE_PIN23_BITMASK	(1<<(CORE_PIN23_BIT))
 547:F:\kalkulyator-workspace-v2\TeensyCore3\src\core_pins.h **** #define CORE_PIN24_BITMASK	(1<<(CORE_PIN24_BIT))
 548:F:\kalkulyator-workspace-v2\TeensyCore3\src\core_pins.h **** #define CORE_PIN25_BITMASK	(1<<(CORE_PIN25_BIT))
 549:F:\kalkulyator-workspace-v2\TeensyCore3\src\core_pins.h **** #define CORE_PIN26_BITMASK	(1<<(CORE_PIN26_BIT))
 550:F:\kalkulyator-workspace-v2\TeensyCore3\src\core_pins.h **** 
 551:F:\kalkulyator-workspace-v2\TeensyCore3\src\core_pins.h **** #define CORE_PIN0_PORTREG	FGPIOB_PDOR
 552:F:\kalkulyator-workspace-v2\TeensyCore3\src\core_pins.h **** #define CORE_PIN1_PORTREG	FGPIOB_PDOR
 553:F:\kalkulyator-workspace-v2\TeensyCore3\src\core_pins.h **** #define CORE_PIN2_PORTREG	FGPIOD_PDOR
 554:F:\kalkulyator-workspace-v2\TeensyCore3\src\core_pins.h **** #define CORE_PIN3_PORTREG	FGPIOA_PDOR
 555:F:\kalkulyator-workspace-v2\TeensyCore3\src\core_pins.h **** #define CORE_PIN4_PORTREG	FGPIOA_PDOR
 556:F:\kalkulyator-workspace-v2\TeensyCore3\src\core_pins.h **** #define CORE_PIN5_PORTREG	FGPIOD_PDOR
 557:F:\kalkulyator-workspace-v2\TeensyCore3\src\core_pins.h **** #define CORE_PIN6_PORTREG	FGPIOD_PDOR
 558:F:\kalkulyator-workspace-v2\TeensyCore3\src\core_pins.h **** #define CORE_PIN7_PORTREG	FGPIOD_PDOR
 559:F:\kalkulyator-workspace-v2\TeensyCore3\src\core_pins.h **** #define CORE_PIN8_PORTREG	FGPIOD_PDOR
 560:F:\kalkulyator-workspace-v2\TeensyCore3\src\core_pins.h **** #define CORE_PIN9_PORTREG	FGPIOC_PDOR
 561:F:\kalkulyator-workspace-v2\TeensyCore3\src\core_pins.h **** #define CORE_PIN10_PORTREG	FGPIOC_PDOR
 562:F:\kalkulyator-workspace-v2\TeensyCore3\src\core_pins.h **** #define CORE_PIN11_PORTREG	FGPIOC_PDOR
 563:F:\kalkulyator-workspace-v2\TeensyCore3\src\core_pins.h **** #define CORE_PIN12_PORTREG	FGPIOC_PDOR
 564:F:\kalkulyator-workspace-v2\TeensyCore3\src\core_pins.h **** #define CORE_PIN13_PORTREG	FGPIOC_PDOR
 565:F:\kalkulyator-workspace-v2\TeensyCore3\src\core_pins.h **** #define CORE_PIN14_PORTREG	FGPIOD_PDOR
 566:F:\kalkulyator-workspace-v2\TeensyCore3\src\core_pins.h **** #define CORE_PIN15_PORTREG	FGPIOC_PDOR
 567:F:\kalkulyator-workspace-v2\TeensyCore3\src\core_pins.h **** #define CORE_PIN16_PORTREG	FGPIOB_PDOR
 568:F:\kalkulyator-workspace-v2\TeensyCore3\src\core_pins.h **** #define CORE_PIN17_PORTREG	FGPIOB_PDOR
 569:F:\kalkulyator-workspace-v2\TeensyCore3\src\core_pins.h **** #define CORE_PIN18_PORTREG	FGPIOB_PDOR
 570:F:\kalkulyator-workspace-v2\TeensyCore3\src\core_pins.h **** #define CORE_PIN19_PORTREG	FGPIOB_PDOR
 571:F:\kalkulyator-workspace-v2\TeensyCore3\src\core_pins.h **** #define CORE_PIN20_PORTREG	FGPIOD_PDOR
 572:F:\kalkulyator-workspace-v2\TeensyCore3\src\core_pins.h **** #define CORE_PIN21_PORTREG	FGPIOD_PDOR
 573:F:\kalkulyator-workspace-v2\TeensyCore3\src\core_pins.h **** #define CORE_PIN22_PORTREG	FGPIOC_PDOR
 574:F:\kalkulyator-workspace-v2\TeensyCore3\src\core_pins.h **** #define CORE_PIN23_PORTREG	FGPIOC_PDOR
 575:F:\kalkulyator-workspace-v2\TeensyCore3\src\core_pins.h **** #define CORE_PIN24_PORTREG	FGPIOE_PDOR
 576:F:\kalkulyator-workspace-v2\TeensyCore3\src\core_pins.h **** #define CORE_PIN25_PORTREG	FGPIOE_PDOR
 577:F:\kalkulyator-workspace-v2\TeensyCore3\src\core_pins.h **** #define CORE_PIN26_PORTREG	FGPIOE_PDOR
 578:F:\kalkulyator-workspace-v2\TeensyCore3\src\core_pins.h **** 
 579:F:\kalkulyator-workspace-v2\TeensyCore3\src\core_pins.h **** #define CORE_PIN0_PORTSET	FGPIOB_PSOR
 580:F:\kalkulyator-workspace-v2\TeensyCore3\src\core_pins.h **** #define CORE_PIN1_PORTSET	FGPIOB_PSOR
 581:F:\kalkulyator-workspace-v2\TeensyCore3\src\core_pins.h **** #define CORE_PIN2_PORTSET	FGPIOD_PSOR
 582:F:\kalkulyator-workspace-v2\TeensyCore3\src\core_pins.h **** #define CORE_PIN3_PORTSET	FGPIOA_PSOR
 583:F:\kalkulyator-workspace-v2\TeensyCore3\src\core_pins.h **** #define CORE_PIN4_PORTSET	FGPIOA_PSOR
 584:F:\kalkulyator-workspace-v2\TeensyCore3\src\core_pins.h **** #define CORE_PIN5_PORTSET	FGPIOD_PSOR
 585:F:\kalkulyator-workspace-v2\TeensyCore3\src\core_pins.h **** #define CORE_PIN6_PORTSET	FGPIOD_PSOR
 586:F:\kalkulyator-workspace-v2\TeensyCore3\src\core_pins.h **** #define CORE_PIN7_PORTSET	FGPIOD_PSOR
 587:F:\kalkulyator-workspace-v2\TeensyCore3\src\core_pins.h **** #define CORE_PIN8_PORTSET	FGPIOD_PSOR
 588:F:\kalkulyator-workspace-v2\TeensyCore3\src\core_pins.h **** #define CORE_PIN9_PORTSET	FGPIOC_PSOR
 589:F:\kalkulyator-workspace-v2\TeensyCore3\src\core_pins.h **** #define CORE_PIN10_PORTSET	FGPIOC_PSOR
 590:F:\kalkulyator-workspace-v2\TeensyCore3\src\core_pins.h **** #define CORE_PIN11_PORTSET	FGPIOC_PSOR
 591:F:\kalkulyator-workspace-v2\TeensyCore3\src\core_pins.h **** #define CORE_PIN12_PORTSET	FGPIOC_PSOR
 592:F:\kalkulyator-workspace-v2\TeensyCore3\src\core_pins.h **** #define CORE_PIN13_PORTSET	FGPIOC_PSOR
 593:F:\kalkulyator-workspace-v2\TeensyCore3\src\core_pins.h **** #define CORE_PIN14_PORTSET	FGPIOD_PSOR
 594:F:\kalkulyator-workspace-v2\TeensyCore3\src\core_pins.h **** #define CORE_PIN15_PORTSET	FGPIOC_PSOR
 595:F:\kalkulyator-workspace-v2\TeensyCore3\src\core_pins.h **** #define CORE_PIN16_PORTSET	FGPIOB_PSOR
 596:F:\kalkulyator-workspace-v2\TeensyCore3\src\core_pins.h **** #define CORE_PIN17_PORTSET	FGPIOB_PSOR
 597:F:\kalkulyator-workspace-v2\TeensyCore3\src\core_pins.h **** #define CORE_PIN18_PORTSET	FGPIOB_PSOR
 598:F:\kalkulyator-workspace-v2\TeensyCore3\src\core_pins.h **** #define CORE_PIN19_PORTSET	FGPIOB_PSOR
 599:F:\kalkulyator-workspace-v2\TeensyCore3\src\core_pins.h **** #define CORE_PIN20_PORTSET	FGPIOD_PSOR
 600:F:\kalkulyator-workspace-v2\TeensyCore3\src\core_pins.h **** #define CORE_PIN21_PORTSET	FGPIOD_PSOR
 601:F:\kalkulyator-workspace-v2\TeensyCore3\src\core_pins.h **** #define CORE_PIN22_PORTSET	FGPIOC_PSOR
 602:F:\kalkulyator-workspace-v2\TeensyCore3\src\core_pins.h **** #define CORE_PIN23_PORTSET	FGPIOC_PSOR
 603:F:\kalkulyator-workspace-v2\TeensyCore3\src\core_pins.h **** #define CORE_PIN24_PORTSET	FGPIOE_PSOR
 604:F:\kalkulyator-workspace-v2\TeensyCore3\src\core_pins.h **** #define CORE_PIN25_PORTSET	FGPIOE_PSOR
 605:F:\kalkulyator-workspace-v2\TeensyCore3\src\core_pins.h **** #define CORE_PIN26_PORTSET	FGPIOE_PSOR
 606:F:\kalkulyator-workspace-v2\TeensyCore3\src\core_pins.h **** 
 607:F:\kalkulyator-workspace-v2\TeensyCore3\src\core_pins.h **** #define CORE_PIN0_PORTCLEAR	FGPIOB_PCOR
 608:F:\kalkulyator-workspace-v2\TeensyCore3\src\core_pins.h **** #define CORE_PIN1_PORTCLEAR	FGPIOB_PCOR
 609:F:\kalkulyator-workspace-v2\TeensyCore3\src\core_pins.h **** #define CORE_PIN2_PORTCLEAR	FGPIOD_PCOR
 610:F:\kalkulyator-workspace-v2\TeensyCore3\src\core_pins.h **** #define CORE_PIN3_PORTCLEAR	FGPIOA_PCOR
 611:F:\kalkulyator-workspace-v2\TeensyCore3\src\core_pins.h **** #define CORE_PIN4_PORTCLEAR	FGPIOA_PCOR
 612:F:\kalkulyator-workspace-v2\TeensyCore3\src\core_pins.h **** #define CORE_PIN5_PORTCLEAR	FGPIOD_PCOR
 613:F:\kalkulyator-workspace-v2\TeensyCore3\src\core_pins.h **** #define CORE_PIN6_PORTCLEAR	FGPIOD_PCOR
 614:F:\kalkulyator-workspace-v2\TeensyCore3\src\core_pins.h **** #define CORE_PIN7_PORTCLEAR	FGPIOD_PCOR
 615:F:\kalkulyator-workspace-v2\TeensyCore3\src\core_pins.h **** #define CORE_PIN8_PORTCLEAR	FGPIOD_PCOR
 616:F:\kalkulyator-workspace-v2\TeensyCore3\src\core_pins.h **** #define CORE_PIN9_PORTCLEAR	FGPIOC_PCOR
 617:F:\kalkulyator-workspace-v2\TeensyCore3\src\core_pins.h **** #define CORE_PIN10_PORTCLEAR	FGPIOC_PCOR
 618:F:\kalkulyator-workspace-v2\TeensyCore3\src\core_pins.h **** #define CORE_PIN11_PORTCLEAR	FGPIOC_PCOR
 619:F:\kalkulyator-workspace-v2\TeensyCore3\src\core_pins.h **** #define CORE_PIN12_PORTCLEAR	FGPIOC_PCOR
 620:F:\kalkulyator-workspace-v2\TeensyCore3\src\core_pins.h **** #define CORE_PIN13_PORTCLEAR	FGPIOC_PCOR
 621:F:\kalkulyator-workspace-v2\TeensyCore3\src\core_pins.h **** #define CORE_PIN14_PORTCLEAR	FGPIOD_PCOR
 622:F:\kalkulyator-workspace-v2\TeensyCore3\src\core_pins.h **** #define CORE_PIN15_PORTCLEAR	FGPIOC_PCOR
 623:F:\kalkulyator-workspace-v2\TeensyCore3\src\core_pins.h **** #define CORE_PIN16_PORTCLEAR	FGPIOB_PCOR
 624:F:\kalkulyator-workspace-v2\TeensyCore3\src\core_pins.h **** #define CORE_PIN17_PORTCLEAR	FGPIOB_PCOR
 625:F:\kalkulyator-workspace-v2\TeensyCore3\src\core_pins.h **** #define CORE_PIN18_PORTCLEAR	FGPIOB_PCOR
 626:F:\kalkulyator-workspace-v2\TeensyCore3\src\core_pins.h **** #define CORE_PIN19_PORTCLEAR	FGPIOB_PCOR
 627:F:\kalkulyator-workspace-v2\TeensyCore3\src\core_pins.h **** #define CORE_PIN20_PORTCLEAR	FGPIOD_PCOR
 628:F:\kalkulyator-workspace-v2\TeensyCore3\src\core_pins.h **** #define CORE_PIN21_PORTCLEAR	FGPIOD_PCOR
 629:F:\kalkulyator-workspace-v2\TeensyCore3\src\core_pins.h **** #define CORE_PIN22_PORTCLEAR	FGPIOC_PCOR
 630:F:\kalkulyator-workspace-v2\TeensyCore3\src\core_pins.h **** #define CORE_PIN23_PORTCLEAR	FGPIOC_PCOR
 631:F:\kalkulyator-workspace-v2\TeensyCore3\src\core_pins.h **** #define CORE_PIN24_PORTCLEAR	FGPIOE_PCOR
 632:F:\kalkulyator-workspace-v2\TeensyCore3\src\core_pins.h **** #define CORE_PIN25_PORTCLEAR	FGPIOE_PCOR
 633:F:\kalkulyator-workspace-v2\TeensyCore3\src\core_pins.h **** #define CORE_PIN26_PORTCLEAR	FGPIOE_PCOR
 634:F:\kalkulyator-workspace-v2\TeensyCore3\src\core_pins.h **** 
 635:F:\kalkulyator-workspace-v2\TeensyCore3\src\core_pins.h **** #define CORE_PIN0_DDRREG	FGPIOB_PDDR
 636:F:\kalkulyator-workspace-v2\TeensyCore3\src\core_pins.h **** #define CORE_PIN1_DDRREG	FGPIOB_PDDR
 637:F:\kalkulyator-workspace-v2\TeensyCore3\src\core_pins.h **** #define CORE_PIN2_DDRREG	FGPIOD_PDDR
 638:F:\kalkulyator-workspace-v2\TeensyCore3\src\core_pins.h **** #define CORE_PIN3_DDRREG	FGPIOA_PDDR
 639:F:\kalkulyator-workspace-v2\TeensyCore3\src\core_pins.h **** #define CORE_PIN4_DDRREG	FGPIOA_PDDR
 640:F:\kalkulyator-workspace-v2\TeensyCore3\src\core_pins.h **** #define CORE_PIN5_DDRREG	FGPIOD_PDDR
 641:F:\kalkulyator-workspace-v2\TeensyCore3\src\core_pins.h **** #define CORE_PIN6_DDRREG	FGPIOD_PDDR
 642:F:\kalkulyator-workspace-v2\TeensyCore3\src\core_pins.h **** #define CORE_PIN7_DDRREG	FGPIOD_PDDR
 643:F:\kalkulyator-workspace-v2\TeensyCore3\src\core_pins.h **** #define CORE_PIN8_DDRREG	FGPIOD_PDDR
 644:F:\kalkulyator-workspace-v2\TeensyCore3\src\core_pins.h **** #define CORE_PIN9_DDRREG	FGPIOC_PDDR
 645:F:\kalkulyator-workspace-v2\TeensyCore3\src\core_pins.h **** #define CORE_PIN10_DDRREG	FGPIOC_PDDR
 646:F:\kalkulyator-workspace-v2\TeensyCore3\src\core_pins.h **** #define CORE_PIN11_DDRREG	FGPIOC_PDDR
 647:F:\kalkulyator-workspace-v2\TeensyCore3\src\core_pins.h **** #define CORE_PIN12_DDRREG	FGPIOC_PDDR
 648:F:\kalkulyator-workspace-v2\TeensyCore3\src\core_pins.h **** #define CORE_PIN13_DDRREG	FGPIOC_PDDR
 649:F:\kalkulyator-workspace-v2\TeensyCore3\src\core_pins.h **** #define CORE_PIN14_DDRREG	FGPIOD_PDDR
 650:F:\kalkulyator-workspace-v2\TeensyCore3\src\core_pins.h **** #define CORE_PIN15_DDRREG	FGPIOC_PDDR
 651:F:\kalkulyator-workspace-v2\TeensyCore3\src\core_pins.h **** #define CORE_PIN16_DDRREG	FGPIOB_PDDR
 652:F:\kalkulyator-workspace-v2\TeensyCore3\src\core_pins.h **** #define CORE_PIN17_DDRREG	FGPIOB_PDDR
 653:F:\kalkulyator-workspace-v2\TeensyCore3\src\core_pins.h **** #define CORE_PIN18_DDRREG	FGPIOB_PDDR
 654:F:\kalkulyator-workspace-v2\TeensyCore3\src\core_pins.h **** #define CORE_PIN19_DDRREG	FGPIOB_PDDR
 655:F:\kalkulyator-workspace-v2\TeensyCore3\src\core_pins.h **** #define CORE_PIN20_DDRREG	FGPIOD_PDDR
 656:F:\kalkulyator-workspace-v2\TeensyCore3\src\core_pins.h **** #define CORE_PIN21_DDRREG	FGPIOD_PDDR
 657:F:\kalkulyator-workspace-v2\TeensyCore3\src\core_pins.h **** #define CORE_PIN22_DDRREG	FGPIOC_PDDR
 658:F:\kalkulyator-workspace-v2\TeensyCore3\src\core_pins.h **** #define CORE_PIN23_DDRREG	FGPIOC_PDDR
 659:F:\kalkulyator-workspace-v2\TeensyCore3\src\core_pins.h **** #define CORE_PIN24_DDRREG	FGPIOE_PDDR
 660:F:\kalkulyator-workspace-v2\TeensyCore3\src\core_pins.h **** #define CORE_PIN25_DDRREG	FGPIOE_PDDR
 661:F:\kalkulyator-workspace-v2\TeensyCore3\src\core_pins.h **** #define CORE_PIN26_DDRREG	FGPIOE_PDDR
 662:F:\kalkulyator-workspace-v2\TeensyCore3\src\core_pins.h **** 
 663:F:\kalkulyator-workspace-v2\TeensyCore3\src\core_pins.h **** #define CORE_PIN0_PINREG	FGPIOB_PDIR
 664:F:\kalkulyator-workspace-v2\TeensyCore3\src\core_pins.h **** #define CORE_PIN1_PINREG	FGPIOB_PDIR
 665:F:\kalkulyator-workspace-v2\TeensyCore3\src\core_pins.h **** #define CORE_PIN2_PINREG	FGPIOD_PDIR
 666:F:\kalkulyator-workspace-v2\TeensyCore3\src\core_pins.h **** #define CORE_PIN3_PINREG	FGPIOA_PDIR
 667:F:\kalkulyator-workspace-v2\TeensyCore3\src\core_pins.h **** #define CORE_PIN4_PINREG	FGPIOA_PDIR
 668:F:\kalkulyator-workspace-v2\TeensyCore3\src\core_pins.h **** #define CORE_PIN5_PINREG	FGPIOD_PDIR
 669:F:\kalkulyator-workspace-v2\TeensyCore3\src\core_pins.h **** #define CORE_PIN6_PINREG	FGPIOD_PDIR
 670:F:\kalkulyator-workspace-v2\TeensyCore3\src\core_pins.h **** #define CORE_PIN7_PINREG	FGPIOD_PDIR
 671:F:\kalkulyator-workspace-v2\TeensyCore3\src\core_pins.h **** #define CORE_PIN8_PINREG	FGPIOD_PDIR
 672:F:\kalkulyator-workspace-v2\TeensyCore3\src\core_pins.h **** #define CORE_PIN9_PINREG	FGPIOC_PDIR
 673:F:\kalkulyator-workspace-v2\TeensyCore3\src\core_pins.h **** #define CORE_PIN10_PINREG	FGPIOC_PDIR
 674:F:\kalkulyator-workspace-v2\TeensyCore3\src\core_pins.h **** #define CORE_PIN11_PINREG	FGPIOC_PDIR
 675:F:\kalkulyator-workspace-v2\TeensyCore3\src\core_pins.h **** #define CORE_PIN12_PINREG	FGPIOC_PDIR
 676:F:\kalkulyator-workspace-v2\TeensyCore3\src\core_pins.h **** #define CORE_PIN13_PINREG	FGPIOC_PDIR
 677:F:\kalkulyator-workspace-v2\TeensyCore3\src\core_pins.h **** #define CORE_PIN14_PINREG	FGPIOD_PDIR
 678:F:\kalkulyator-workspace-v2\TeensyCore3\src\core_pins.h **** #define CORE_PIN15_PINREG	FGPIOC_PDIR
 679:F:\kalkulyator-workspace-v2\TeensyCore3\src\core_pins.h **** #define CORE_PIN16_PINREG	FGPIOB_PDIR
 680:F:\kalkulyator-workspace-v2\TeensyCore3\src\core_pins.h **** #define CORE_PIN17_PINREG	FGPIOB_PDIR
 681:F:\kalkulyator-workspace-v2\TeensyCore3\src\core_pins.h **** #define CORE_PIN18_PINREG	FGPIOB_PDIR
 682:F:\kalkulyator-workspace-v2\TeensyCore3\src\core_pins.h **** #define CORE_PIN19_PINREG	FGPIOB_PDIR
 683:F:\kalkulyator-workspace-v2\TeensyCore3\src\core_pins.h **** #define CORE_PIN20_PINREG	FGPIOD_PDIR
 684:F:\kalkulyator-workspace-v2\TeensyCore3\src\core_pins.h **** #define CORE_PIN21_PINREG	FGPIOD_PDIR
 685:F:\kalkulyator-workspace-v2\TeensyCore3\src\core_pins.h **** #define CORE_PIN22_PINREG	FGPIOC_PDIR
 686:F:\kalkulyator-workspace-v2\TeensyCore3\src\core_pins.h **** #define CORE_PIN23_PINREG	FGPIOC_PDIR
 687:F:\kalkulyator-workspace-v2\TeensyCore3\src\core_pins.h **** #define CORE_PIN24_PINREG	FGPIOE_PDIR
 688:F:\kalkulyator-workspace-v2\TeensyCore3\src\core_pins.h **** #define CORE_PIN25_PINREG	FGPIOE_PDIR
 689:F:\kalkulyator-workspace-v2\TeensyCore3\src\core_pins.h **** #define CORE_PIN26_PINREG	FGPIOE_PDIR
 690:F:\kalkulyator-workspace-v2\TeensyCore3\src\core_pins.h **** 
 691:F:\kalkulyator-workspace-v2\TeensyCore3\src\core_pins.h **** #define CORE_PIN0_CONFIG	PORTB_PCR16
 692:F:\kalkulyator-workspace-v2\TeensyCore3\src\core_pins.h **** #define CORE_PIN1_CONFIG	PORTB_PCR17
 693:F:\kalkulyator-workspace-v2\TeensyCore3\src\core_pins.h **** #define CORE_PIN2_CONFIG	PORTD_PCR0
 694:F:\kalkulyator-workspace-v2\TeensyCore3\src\core_pins.h **** #define CORE_PIN3_CONFIG	PORTA_PCR1
 695:F:\kalkulyator-workspace-v2\TeensyCore3\src\core_pins.h **** #define CORE_PIN4_CONFIG	PORTA_PCR2
 696:F:\kalkulyator-workspace-v2\TeensyCore3\src\core_pins.h **** #define CORE_PIN5_CONFIG	PORTD_PCR7
 697:F:\kalkulyator-workspace-v2\TeensyCore3\src\core_pins.h **** #define CORE_PIN6_CONFIG	PORTD_PCR4
 698:F:\kalkulyator-workspace-v2\TeensyCore3\src\core_pins.h **** #define CORE_PIN7_CONFIG	PORTD_PCR2
 699:F:\kalkulyator-workspace-v2\TeensyCore3\src\core_pins.h **** #define CORE_PIN8_CONFIG	PORTD_PCR3
 700:F:\kalkulyator-workspace-v2\TeensyCore3\src\core_pins.h **** #define CORE_PIN9_CONFIG	PORTC_PCR3
 701:F:\kalkulyator-workspace-v2\TeensyCore3\src\core_pins.h **** #define CORE_PIN10_CONFIG	PORTC_PCR4
 702:F:\kalkulyator-workspace-v2\TeensyCore3\src\core_pins.h **** #define CORE_PIN11_CONFIG	PORTC_PCR6
 703:F:\kalkulyator-workspace-v2\TeensyCore3\src\core_pins.h **** #define CORE_PIN12_CONFIG	PORTC_PCR7
 704:F:\kalkulyator-workspace-v2\TeensyCore3\src\core_pins.h **** #define CORE_PIN13_CONFIG	PORTC_PCR5
 705:F:\kalkulyator-workspace-v2\TeensyCore3\src\core_pins.h **** #define CORE_PIN14_CONFIG	PORTD_PCR1
 706:F:\kalkulyator-workspace-v2\TeensyCore3\src\core_pins.h **** #define CORE_PIN15_CONFIG	PORTC_PCR0
 707:F:\kalkulyator-workspace-v2\TeensyCore3\src\core_pins.h **** #define CORE_PIN16_CONFIG	PORTB_PCR0
 708:F:\kalkulyator-workspace-v2\TeensyCore3\src\core_pins.h **** #define CORE_PIN17_CONFIG	PORTB_PCR1
 709:F:\kalkulyator-workspace-v2\TeensyCore3\src\core_pins.h **** #define CORE_PIN18_CONFIG	PORTB_PCR3
 710:F:\kalkulyator-workspace-v2\TeensyCore3\src\core_pins.h **** #define CORE_PIN19_CONFIG	PORTB_PCR2
 711:F:\kalkulyator-workspace-v2\TeensyCore3\src\core_pins.h **** #define CORE_PIN20_CONFIG	PORTD_PCR5
 712:F:\kalkulyator-workspace-v2\TeensyCore3\src\core_pins.h **** #define CORE_PIN21_CONFIG	PORTD_PCR6
 713:F:\kalkulyator-workspace-v2\TeensyCore3\src\core_pins.h **** #define CORE_PIN22_CONFIG	PORTC_PCR1
 714:F:\kalkulyator-workspace-v2\TeensyCore3\src\core_pins.h **** #define CORE_PIN23_CONFIG	PORTC_PCR2
 715:F:\kalkulyator-workspace-v2\TeensyCore3\src\core_pins.h **** #define CORE_PIN24_CONFIG	PORTE_PCR20
 716:F:\kalkulyator-workspace-v2\TeensyCore3\src\core_pins.h **** #define CORE_PIN25_CONFIG	PORTE_PCR21
 717:F:\kalkulyator-workspace-v2\TeensyCore3\src\core_pins.h **** #define CORE_PIN26_CONFIG	PORTE_PCR30
 718:F:\kalkulyator-workspace-v2\TeensyCore3\src\core_pins.h **** 
 719:F:\kalkulyator-workspace-v2\TeensyCore3\src\core_pins.h **** #define CORE_ADC0_PIN		14
 720:F:\kalkulyator-workspace-v2\TeensyCore3\src\core_pins.h **** #define CORE_ADC1_PIN		15
 721:F:\kalkulyator-workspace-v2\TeensyCore3\src\core_pins.h **** #define CORE_ADC2_PIN		16
 722:F:\kalkulyator-workspace-v2\TeensyCore3\src\core_pins.h **** #define CORE_ADC3_PIN		17
 723:F:\kalkulyator-workspace-v2\TeensyCore3\src\core_pins.h **** #define CORE_ADC4_PIN		18
 724:F:\kalkulyator-workspace-v2\TeensyCore3\src\core_pins.h **** #define CORE_ADC5_PIN		19
 725:F:\kalkulyator-workspace-v2\TeensyCore3\src\core_pins.h **** #define CORE_ADC6_PIN		20
 726:F:\kalkulyator-workspace-v2\TeensyCore3\src\core_pins.h **** #define CORE_ADC7_PIN		21
 727:F:\kalkulyator-workspace-v2\TeensyCore3\src\core_pins.h **** #define CORE_ADC8_PIN		22
 728:F:\kalkulyator-workspace-v2\TeensyCore3\src\core_pins.h **** #define CORE_ADC9_PIN		23
 729:F:\kalkulyator-workspace-v2\TeensyCore3\src\core_pins.h **** #define CORE_ADC10_PIN		24
 730:F:\kalkulyator-workspace-v2\TeensyCore3\src\core_pins.h **** #define CORE_ADC11_PIN		25
 731:F:\kalkulyator-workspace-v2\TeensyCore3\src\core_pins.h **** #define CORE_ADC12_PIN		26
 732:F:\kalkulyator-workspace-v2\TeensyCore3\src\core_pins.h **** 
 733:F:\kalkulyator-workspace-v2\TeensyCore3\src\core_pins.h **** #define CORE_RXD0_PIN		0
 734:F:\kalkulyator-workspace-v2\TeensyCore3\src\core_pins.h **** #define CORE_TXD0_PIN		1
 735:F:\kalkulyator-workspace-v2\TeensyCore3\src\core_pins.h **** #define CORE_RXD1_PIN		9
 736:F:\kalkulyator-workspace-v2\TeensyCore3\src\core_pins.h **** #define CORE_TXD1_PIN		10
 737:F:\kalkulyator-workspace-v2\TeensyCore3\src\core_pins.h **** #define CORE_RXD2_PIN		7
 738:F:\kalkulyator-workspace-v2\TeensyCore3\src\core_pins.h **** #define CORE_TXD2_PIN		8
 739:F:\kalkulyator-workspace-v2\TeensyCore3\src\core_pins.h **** 
 740:F:\kalkulyator-workspace-v2\TeensyCore3\src\core_pins.h **** #define CORE_INT2_PIN		2
 741:F:\kalkulyator-workspace-v2\TeensyCore3\src\core_pins.h **** #define CORE_INT3_PIN		3
 742:F:\kalkulyator-workspace-v2\TeensyCore3\src\core_pins.h **** #define CORE_INT4_PIN		4
 743:F:\kalkulyator-workspace-v2\TeensyCore3\src\core_pins.h **** #define CORE_INT5_PIN		5
 744:F:\kalkulyator-workspace-v2\TeensyCore3\src\core_pins.h **** #define CORE_INT6_PIN		6
 745:F:\kalkulyator-workspace-v2\TeensyCore3\src\core_pins.h **** #define CORE_INT7_PIN		7
 746:F:\kalkulyator-workspace-v2\TeensyCore3\src\core_pins.h **** #define CORE_INT8_PIN		8
 747:F:\kalkulyator-workspace-v2\TeensyCore3\src\core_pins.h **** #define CORE_INT9_PIN		9
 748:F:\kalkulyator-workspace-v2\TeensyCore3\src\core_pins.h **** #define CORE_INT10_PIN		10
 749:F:\kalkulyator-workspace-v2\TeensyCore3\src\core_pins.h **** #define CORE_INT11_PIN		11
 750:F:\kalkulyator-workspace-v2\TeensyCore3\src\core_pins.h **** #define CORE_INT12_PIN		12
 751:F:\kalkulyator-workspace-v2\TeensyCore3\src\core_pins.h **** #define CORE_INT13_PIN		13
 752:F:\kalkulyator-workspace-v2\TeensyCore3\src\core_pins.h **** #define CORE_INT14_PIN		14
 753:F:\kalkulyator-workspace-v2\TeensyCore3\src\core_pins.h **** #define CORE_INT15_PIN		15
 754:F:\kalkulyator-workspace-v2\TeensyCore3\src\core_pins.h **** #define CORE_INT20_PIN		20
 755:F:\kalkulyator-workspace-v2\TeensyCore3\src\core_pins.h **** #define CORE_INT21_PIN		21
 756:F:\kalkulyator-workspace-v2\TeensyCore3\src\core_pins.h **** #define CORE_INT22_PIN		22
 757:F:\kalkulyator-workspace-v2\TeensyCore3\src\core_pins.h **** #define CORE_INT23_PIN		23
 758:F:\kalkulyator-workspace-v2\TeensyCore3\src\core_pins.h **** 
 759:F:\kalkulyator-workspace-v2\TeensyCore3\src\core_pins.h **** 
 760:F:\kalkulyator-workspace-v2\TeensyCore3\src\core_pins.h **** #elif defined(__MK64FX512__) || defined(__MK66FX1M0__)
 761:F:\kalkulyator-workspace-v2\TeensyCore3\src\core_pins.h **** 
 762:F:\kalkulyator-workspace-v2\TeensyCore3\src\core_pins.h **** #define CORE_PIN0_BIT		16
 763:F:\kalkulyator-workspace-v2\TeensyCore3\src\core_pins.h **** #define CORE_PIN1_BIT		17
 764:F:\kalkulyator-workspace-v2\TeensyCore3\src\core_pins.h **** #define CORE_PIN2_BIT		0
 765:F:\kalkulyator-workspace-v2\TeensyCore3\src\core_pins.h **** #define CORE_PIN3_BIT		12
 766:F:\kalkulyator-workspace-v2\TeensyCore3\src\core_pins.h **** #define CORE_PIN4_BIT		13
 767:F:\kalkulyator-workspace-v2\TeensyCore3\src\core_pins.h **** #define CORE_PIN5_BIT		7
 768:F:\kalkulyator-workspace-v2\TeensyCore3\src\core_pins.h **** #define CORE_PIN6_BIT		4
 769:F:\kalkulyator-workspace-v2\TeensyCore3\src\core_pins.h **** #define CORE_PIN7_BIT		2
 770:F:\kalkulyator-workspace-v2\TeensyCore3\src\core_pins.h **** #define CORE_PIN8_BIT		3
 771:F:\kalkulyator-workspace-v2\TeensyCore3\src\core_pins.h **** #define CORE_PIN9_BIT		3
 772:F:\kalkulyator-workspace-v2\TeensyCore3\src\core_pins.h **** #define CORE_PIN10_BIT		4
 773:F:\kalkulyator-workspace-v2\TeensyCore3\src\core_pins.h **** #define CORE_PIN11_BIT		6
 774:F:\kalkulyator-workspace-v2\TeensyCore3\src\core_pins.h **** #define CORE_PIN12_BIT		7
 775:F:\kalkulyator-workspace-v2\TeensyCore3\src\core_pins.h **** #define CORE_PIN13_BIT		5
 776:F:\kalkulyator-workspace-v2\TeensyCore3\src\core_pins.h **** #define CORE_PIN14_BIT		1
 777:F:\kalkulyator-workspace-v2\TeensyCore3\src\core_pins.h **** #define CORE_PIN15_BIT		0
 778:F:\kalkulyator-workspace-v2\TeensyCore3\src\core_pins.h **** #define CORE_PIN16_BIT		0
 779:F:\kalkulyator-workspace-v2\TeensyCore3\src\core_pins.h **** #define CORE_PIN17_BIT		1
 780:F:\kalkulyator-workspace-v2\TeensyCore3\src\core_pins.h **** #define CORE_PIN18_BIT		3
 781:F:\kalkulyator-workspace-v2\TeensyCore3\src\core_pins.h **** #define CORE_PIN19_BIT		2
 782:F:\kalkulyator-workspace-v2\TeensyCore3\src\core_pins.h **** #define CORE_PIN20_BIT		5
 783:F:\kalkulyator-workspace-v2\TeensyCore3\src\core_pins.h **** #define CORE_PIN21_BIT		6
 784:F:\kalkulyator-workspace-v2\TeensyCore3\src\core_pins.h **** #define CORE_PIN22_BIT		1
 785:F:\kalkulyator-workspace-v2\TeensyCore3\src\core_pins.h **** #define CORE_PIN23_BIT		2
 786:F:\kalkulyator-workspace-v2\TeensyCore3\src\core_pins.h **** #define CORE_PIN24_BIT		26
 787:F:\kalkulyator-workspace-v2\TeensyCore3\src\core_pins.h **** #define CORE_PIN25_BIT		5
 788:F:\kalkulyator-workspace-v2\TeensyCore3\src\core_pins.h **** #define CORE_PIN26_BIT		14
 789:F:\kalkulyator-workspace-v2\TeensyCore3\src\core_pins.h **** #define CORE_PIN27_BIT		15
 790:F:\kalkulyator-workspace-v2\TeensyCore3\src\core_pins.h **** #define CORE_PIN28_BIT		16
 791:F:\kalkulyator-workspace-v2\TeensyCore3\src\core_pins.h **** #define CORE_PIN29_BIT		18
 792:F:\kalkulyator-workspace-v2\TeensyCore3\src\core_pins.h **** #define CORE_PIN30_BIT		19
 793:F:\kalkulyator-workspace-v2\TeensyCore3\src\core_pins.h **** #define CORE_PIN31_BIT		10
 794:F:\kalkulyator-workspace-v2\TeensyCore3\src\core_pins.h **** #define CORE_PIN32_BIT		11
 795:F:\kalkulyator-workspace-v2\TeensyCore3\src\core_pins.h **** #define CORE_PIN33_BIT		24
 796:F:\kalkulyator-workspace-v2\TeensyCore3\src\core_pins.h **** #define CORE_PIN34_BIT		25
 797:F:\kalkulyator-workspace-v2\TeensyCore3\src\core_pins.h **** #define CORE_PIN35_BIT		8
 798:F:\kalkulyator-workspace-v2\TeensyCore3\src\core_pins.h **** #define CORE_PIN36_BIT		9
 799:F:\kalkulyator-workspace-v2\TeensyCore3\src\core_pins.h **** #define CORE_PIN37_BIT		10
 800:F:\kalkulyator-workspace-v2\TeensyCore3\src\core_pins.h **** #define CORE_PIN38_BIT		11
 801:F:\kalkulyator-workspace-v2\TeensyCore3\src\core_pins.h **** #define CORE_PIN39_BIT		17
 802:F:\kalkulyator-workspace-v2\TeensyCore3\src\core_pins.h **** #define CORE_PIN40_BIT		28
 803:F:\kalkulyator-workspace-v2\TeensyCore3\src\core_pins.h **** #define CORE_PIN41_BIT		29
 804:F:\kalkulyator-workspace-v2\TeensyCore3\src\core_pins.h **** #define CORE_PIN42_BIT		26
 805:F:\kalkulyator-workspace-v2\TeensyCore3\src\core_pins.h **** #define CORE_PIN43_BIT		20
 806:F:\kalkulyator-workspace-v2\TeensyCore3\src\core_pins.h **** #define CORE_PIN44_BIT		22
 807:F:\kalkulyator-workspace-v2\TeensyCore3\src\core_pins.h **** #define CORE_PIN45_BIT		23
 808:F:\kalkulyator-workspace-v2\TeensyCore3\src\core_pins.h **** #define CORE_PIN46_BIT		21
 809:F:\kalkulyator-workspace-v2\TeensyCore3\src\core_pins.h **** #define CORE_PIN47_BIT		8
 810:F:\kalkulyator-workspace-v2\TeensyCore3\src\core_pins.h **** #define CORE_PIN48_BIT		9
 811:F:\kalkulyator-workspace-v2\TeensyCore3\src\core_pins.h **** #define CORE_PIN49_BIT		4
 812:F:\kalkulyator-workspace-v2\TeensyCore3\src\core_pins.h **** #define CORE_PIN50_BIT		5
 813:F:\kalkulyator-workspace-v2\TeensyCore3\src\core_pins.h **** #define CORE_PIN51_BIT		14
 814:F:\kalkulyator-workspace-v2\TeensyCore3\src\core_pins.h **** #define CORE_PIN52_BIT		13
 815:F:\kalkulyator-workspace-v2\TeensyCore3\src\core_pins.h **** #define CORE_PIN53_BIT		12
 816:F:\kalkulyator-workspace-v2\TeensyCore3\src\core_pins.h **** #define CORE_PIN54_BIT		15
 817:F:\kalkulyator-workspace-v2\TeensyCore3\src\core_pins.h **** #define CORE_PIN55_BIT		11
 818:F:\kalkulyator-workspace-v2\TeensyCore3\src\core_pins.h **** #define CORE_PIN56_BIT		10
 819:F:\kalkulyator-workspace-v2\TeensyCore3\src\core_pins.h **** #define CORE_PIN57_BIT		11
 820:F:\kalkulyator-workspace-v2\TeensyCore3\src\core_pins.h **** #define CORE_PIN58_BIT		0
 821:F:\kalkulyator-workspace-v2\TeensyCore3\src\core_pins.h **** #define CORE_PIN59_BIT		1
 822:F:\kalkulyator-workspace-v2\TeensyCore3\src\core_pins.h **** #define CORE_PIN60_BIT		2
 823:F:\kalkulyator-workspace-v2\TeensyCore3\src\core_pins.h **** #define CORE_PIN61_BIT		3
 824:F:\kalkulyator-workspace-v2\TeensyCore3\src\core_pins.h **** #define CORE_PIN62_BIT		4
 825:F:\kalkulyator-workspace-v2\TeensyCore3\src\core_pins.h **** #define CORE_PIN63_BIT		5
 826:F:\kalkulyator-workspace-v2\TeensyCore3\src\core_pins.h **** 
 827:F:\kalkulyator-workspace-v2\TeensyCore3\src\core_pins.h **** #define CORE_PIN0_BITMASK	(1<<(CORE_PIN0_BIT))
 828:F:\kalkulyator-workspace-v2\TeensyCore3\src\core_pins.h **** #define CORE_PIN1_BITMASK	(1<<(CORE_PIN1_BIT))
 829:F:\kalkulyator-workspace-v2\TeensyCore3\src\core_pins.h **** #define CORE_PIN2_BITMASK	(1<<(CORE_PIN2_BIT))
 830:F:\kalkulyator-workspace-v2\TeensyCore3\src\core_pins.h **** #define CORE_PIN3_BITMASK	(1<<(CORE_PIN3_BIT))
 831:F:\kalkulyator-workspace-v2\TeensyCore3\src\core_pins.h **** #define CORE_PIN4_BITMASK	(1<<(CORE_PIN4_BIT))
 832:F:\kalkulyator-workspace-v2\TeensyCore3\src\core_pins.h **** #define CORE_PIN5_BITMASK	(1<<(CORE_PIN5_BIT))
 833:F:\kalkulyator-workspace-v2\TeensyCore3\src\core_pins.h **** #define CORE_PIN6_BITMASK	(1<<(CORE_PIN6_BIT))
 834:F:\kalkulyator-workspace-v2\TeensyCore3\src\core_pins.h **** #define CORE_PIN7_BITMASK	(1<<(CORE_PIN7_BIT))
 835:F:\kalkulyator-workspace-v2\TeensyCore3\src\core_pins.h **** #define CORE_PIN8_BITMASK	(1<<(CORE_PIN8_BIT))
 836:F:\kalkulyator-workspace-v2\TeensyCore3\src\core_pins.h **** #define CORE_PIN9_BITMASK	(1<<(CORE_PIN9_BIT))
 837:F:\kalkulyator-workspace-v2\TeensyCore3\src\core_pins.h **** #define CORE_PIN10_BITMASK	(1<<(CORE_PIN10_BIT))
 838:F:\kalkulyator-workspace-v2\TeensyCore3\src\core_pins.h **** #define CORE_PIN11_BITMASK	(1<<(CORE_PIN11_BIT))
 839:F:\kalkulyator-workspace-v2\TeensyCore3\src\core_pins.h **** #define CORE_PIN12_BITMASK	(1<<(CORE_PIN12_BIT))
 840:F:\kalkulyator-workspace-v2\TeensyCore3\src\core_pins.h **** #define CORE_PIN13_BITMASK	(1<<(CORE_PIN13_BIT))
 841:F:\kalkulyator-workspace-v2\TeensyCore3\src\core_pins.h **** #define CORE_PIN14_BITMASK	(1<<(CORE_PIN14_BIT))
 842:F:\kalkulyator-workspace-v2\TeensyCore3\src\core_pins.h **** #define CORE_PIN15_BITMASK	(1<<(CORE_PIN15_BIT))
 843:F:\kalkulyator-workspace-v2\TeensyCore3\src\core_pins.h **** #define CORE_PIN16_BITMASK	(1<<(CORE_PIN16_BIT))
 844:F:\kalkulyator-workspace-v2\TeensyCore3\src\core_pins.h **** #define CORE_PIN17_BITMASK	(1<<(CORE_PIN17_BIT))
 845:F:\kalkulyator-workspace-v2\TeensyCore3\src\core_pins.h **** #define CORE_PIN18_BITMASK	(1<<(CORE_PIN18_BIT))
 846:F:\kalkulyator-workspace-v2\TeensyCore3\src\core_pins.h **** #define CORE_PIN19_BITMASK	(1<<(CORE_PIN19_BIT))
 847:F:\kalkulyator-workspace-v2\TeensyCore3\src\core_pins.h **** #define CORE_PIN20_BITMASK	(1<<(CORE_PIN20_BIT))
 848:F:\kalkulyator-workspace-v2\TeensyCore3\src\core_pins.h **** #define CORE_PIN21_BITMASK	(1<<(CORE_PIN21_BIT))
 849:F:\kalkulyator-workspace-v2\TeensyCore3\src\core_pins.h **** #define CORE_PIN22_BITMASK	(1<<(CORE_PIN22_BIT))
 850:F:\kalkulyator-workspace-v2\TeensyCore3\src\core_pins.h **** #define CORE_PIN23_BITMASK	(1<<(CORE_PIN23_BIT))
 851:F:\kalkulyator-workspace-v2\TeensyCore3\src\core_pins.h **** #define CORE_PIN24_BITMASK	(1<<(CORE_PIN24_BIT))
 852:F:\kalkulyator-workspace-v2\TeensyCore3\src\core_pins.h **** #define CORE_PIN25_BITMASK	(1<<(CORE_PIN25_BIT))
 853:F:\kalkulyator-workspace-v2\TeensyCore3\src\core_pins.h **** #define CORE_PIN26_BITMASK	(1<<(CORE_PIN26_BIT))
 854:F:\kalkulyator-workspace-v2\TeensyCore3\src\core_pins.h **** #define CORE_PIN27_BITMASK	(1<<(CORE_PIN27_BIT))
 855:F:\kalkulyator-workspace-v2\TeensyCore3\src\core_pins.h **** #define CORE_PIN28_BITMASK	(1<<(CORE_PIN28_BIT))
 856:F:\kalkulyator-workspace-v2\TeensyCore3\src\core_pins.h **** #define CORE_PIN29_BITMASK	(1<<(CORE_PIN29_BIT))
 857:F:\kalkulyator-workspace-v2\TeensyCore3\src\core_pins.h **** #define CORE_PIN30_BITMASK	(1<<(CORE_PIN30_BIT))
 858:F:\kalkulyator-workspace-v2\TeensyCore3\src\core_pins.h **** #define CORE_PIN31_BITMASK	(1<<(CORE_PIN31_BIT))
 859:F:\kalkulyator-workspace-v2\TeensyCore3\src\core_pins.h **** #define CORE_PIN32_BITMASK	(1<<(CORE_PIN32_BIT))
 860:F:\kalkulyator-workspace-v2\TeensyCore3\src\core_pins.h **** #define CORE_PIN33_BITMASK	(1<<(CORE_PIN33_BIT))
 861:F:\kalkulyator-workspace-v2\TeensyCore3\src\core_pins.h **** #define CORE_PIN34_BITMASK	(1<<(CORE_PIN34_BIT))
 862:F:\kalkulyator-workspace-v2\TeensyCore3\src\core_pins.h **** #define CORE_PIN35_BITMASK	(1<<(CORE_PIN35_BIT))
 863:F:\kalkulyator-workspace-v2\TeensyCore3\src\core_pins.h **** #define CORE_PIN36_BITMASK	(1<<(CORE_PIN36_BIT))
 864:F:\kalkulyator-workspace-v2\TeensyCore3\src\core_pins.h **** #define CORE_PIN37_BITMASK	(1<<(CORE_PIN37_BIT))
 865:F:\kalkulyator-workspace-v2\TeensyCore3\src\core_pins.h **** #define CORE_PIN38_BITMASK	(1<<(CORE_PIN38_BIT))
 866:F:\kalkulyator-workspace-v2\TeensyCore3\src\core_pins.h **** #define CORE_PIN39_BITMASK	(1<<(CORE_PIN39_BIT))
 867:F:\kalkulyator-workspace-v2\TeensyCore3\src\core_pins.h **** #define CORE_PIN40_BITMASK	(1<<(CORE_PIN40_BIT))
 868:F:\kalkulyator-workspace-v2\TeensyCore3\src\core_pins.h **** #define CORE_PIN41_BITMASK	(1<<(CORE_PIN41_BIT))
 869:F:\kalkulyator-workspace-v2\TeensyCore3\src\core_pins.h **** #define CORE_PIN42_BITMASK	(1<<(CORE_PIN42_BIT))
 870:F:\kalkulyator-workspace-v2\TeensyCore3\src\core_pins.h **** #define CORE_PIN43_BITMASK	(1<<(CORE_PIN43_BIT))
 871:F:\kalkulyator-workspace-v2\TeensyCore3\src\core_pins.h **** #define CORE_PIN44_BITMASK	(1<<(CORE_PIN44_BIT))
 872:F:\kalkulyator-workspace-v2\TeensyCore3\src\core_pins.h **** #define CORE_PIN45_BITMASK	(1<<(CORE_PIN45_BIT))
 873:F:\kalkulyator-workspace-v2\TeensyCore3\src\core_pins.h **** #define CORE_PIN46_BITMASK	(1<<(CORE_PIN46_BIT))
 874:F:\kalkulyator-workspace-v2\TeensyCore3\src\core_pins.h **** #define CORE_PIN47_BITMASK	(1<<(CORE_PIN47_BIT))
 875:F:\kalkulyator-workspace-v2\TeensyCore3\src\core_pins.h **** #define CORE_PIN48_BITMASK	(1<<(CORE_PIN48_BIT))
 876:F:\kalkulyator-workspace-v2\TeensyCore3\src\core_pins.h **** #define CORE_PIN49_BITMASK	(1<<(CORE_PIN49_BIT))
 877:F:\kalkulyator-workspace-v2\TeensyCore3\src\core_pins.h **** #define CORE_PIN50_BITMASK	(1<<(CORE_PIN50_BIT))
 878:F:\kalkulyator-workspace-v2\TeensyCore3\src\core_pins.h **** #define CORE_PIN51_BITMASK	(1<<(CORE_PIN51_BIT))
 879:F:\kalkulyator-workspace-v2\TeensyCore3\src\core_pins.h **** #define CORE_PIN52_BITMASK	(1<<(CORE_PIN52_BIT))
 880:F:\kalkulyator-workspace-v2\TeensyCore3\src\core_pins.h **** #define CORE_PIN53_BITMASK	(1<<(CORE_PIN53_BIT))
 881:F:\kalkulyator-workspace-v2\TeensyCore3\src\core_pins.h **** #define CORE_PIN54_BITMASK	(1<<(CORE_PIN54_BIT))
 882:F:\kalkulyator-workspace-v2\TeensyCore3\src\core_pins.h **** #define CORE_PIN55_BITMASK	(1<<(CORE_PIN55_BIT))
 883:F:\kalkulyator-workspace-v2\TeensyCore3\src\core_pins.h **** #define CORE_PIN56_BITMASK	(1<<(CORE_PIN56_BIT))
 884:F:\kalkulyator-workspace-v2\TeensyCore3\src\core_pins.h **** #define CORE_PIN57_BITMASK	(1<<(CORE_PIN57_BIT))
 885:F:\kalkulyator-workspace-v2\TeensyCore3\src\core_pins.h **** #define CORE_PIN58_BITMASK	(1<<(CORE_PIN58_BIT))
 886:F:\kalkulyator-workspace-v2\TeensyCore3\src\core_pins.h **** #define CORE_PIN59_BITMASK	(1<<(CORE_PIN59_BIT))
 887:F:\kalkulyator-workspace-v2\TeensyCore3\src\core_pins.h **** #define CORE_PIN60_BITMASK	(1<<(CORE_PIN60_BIT))
 888:F:\kalkulyator-workspace-v2\TeensyCore3\src\core_pins.h **** #define CORE_PIN61_BITMASK	(1<<(CORE_PIN61_BIT))
 889:F:\kalkulyator-workspace-v2\TeensyCore3\src\core_pins.h **** #define CORE_PIN62_BITMASK	(1<<(CORE_PIN62_BIT))
 890:F:\kalkulyator-workspace-v2\TeensyCore3\src\core_pins.h **** #define CORE_PIN63_BITMASK	(1<<(CORE_PIN63_BIT))
 891:F:\kalkulyator-workspace-v2\TeensyCore3\src\core_pins.h **** 
 892:F:\kalkulyator-workspace-v2\TeensyCore3\src\core_pins.h **** 
 893:F:\kalkulyator-workspace-v2\TeensyCore3\src\core_pins.h **** #define CORE_PIN0_PORTREG	GPIOB_PDOR
 894:F:\kalkulyator-workspace-v2\TeensyCore3\src\core_pins.h **** #define CORE_PIN1_PORTREG	GPIOB_PDOR
 895:F:\kalkulyator-workspace-v2\TeensyCore3\src\core_pins.h **** #define CORE_PIN2_PORTREG	GPIOD_PDOR
 896:F:\kalkulyator-workspace-v2\TeensyCore3\src\core_pins.h **** #define CORE_PIN3_PORTREG	GPIOA_PDOR
 897:F:\kalkulyator-workspace-v2\TeensyCore3\src\core_pins.h **** #define CORE_PIN4_PORTREG	GPIOA_PDOR
 898:F:\kalkulyator-workspace-v2\TeensyCore3\src\core_pins.h **** #define CORE_PIN5_PORTREG	GPIOD_PDOR
 899:F:\kalkulyator-workspace-v2\TeensyCore3\src\core_pins.h **** #define CORE_PIN6_PORTREG	GPIOD_PDOR
 900:F:\kalkulyator-workspace-v2\TeensyCore3\src\core_pins.h **** #define CORE_PIN7_PORTREG	GPIOD_PDOR
 901:F:\kalkulyator-workspace-v2\TeensyCore3\src\core_pins.h **** #define CORE_PIN8_PORTREG	GPIOD_PDOR
 902:F:\kalkulyator-workspace-v2\TeensyCore3\src\core_pins.h **** #define CORE_PIN9_PORTREG	GPIOC_PDOR
 903:F:\kalkulyator-workspace-v2\TeensyCore3\src\core_pins.h **** #define CORE_PIN10_PORTREG	GPIOC_PDOR
 904:F:\kalkulyator-workspace-v2\TeensyCore3\src\core_pins.h **** #define CORE_PIN11_PORTREG	GPIOC_PDOR
 905:F:\kalkulyator-workspace-v2\TeensyCore3\src\core_pins.h **** #define CORE_PIN12_PORTREG	GPIOC_PDOR
 906:F:\kalkulyator-workspace-v2\TeensyCore3\src\core_pins.h **** #define CORE_PIN13_PORTREG	GPIOC_PDOR
 907:F:\kalkulyator-workspace-v2\TeensyCore3\src\core_pins.h **** #define CORE_PIN14_PORTREG	GPIOD_PDOR
 908:F:\kalkulyator-workspace-v2\TeensyCore3\src\core_pins.h **** #define CORE_PIN15_PORTREG	GPIOC_PDOR
 909:F:\kalkulyator-workspace-v2\TeensyCore3\src\core_pins.h **** #define CORE_PIN16_PORTREG	GPIOB_PDOR
 910:F:\kalkulyator-workspace-v2\TeensyCore3\src\core_pins.h **** #define CORE_PIN17_PORTREG	GPIOB_PDOR
 911:F:\kalkulyator-workspace-v2\TeensyCore3\src\core_pins.h **** #define CORE_PIN18_PORTREG	GPIOB_PDOR
 912:F:\kalkulyator-workspace-v2\TeensyCore3\src\core_pins.h **** #define CORE_PIN19_PORTREG	GPIOB_PDOR
 913:F:\kalkulyator-workspace-v2\TeensyCore3\src\core_pins.h **** #define CORE_PIN20_PORTREG	GPIOD_PDOR
 914:F:\kalkulyator-workspace-v2\TeensyCore3\src\core_pins.h **** #define CORE_PIN21_PORTREG	GPIOD_PDOR
 915:F:\kalkulyator-workspace-v2\TeensyCore3\src\core_pins.h **** #define CORE_PIN22_PORTREG	GPIOC_PDOR
 916:F:\kalkulyator-workspace-v2\TeensyCore3\src\core_pins.h **** #define CORE_PIN23_PORTREG	GPIOC_PDOR
 917:F:\kalkulyator-workspace-v2\TeensyCore3\src\core_pins.h **** #define CORE_PIN24_PORTREG	GPIOE_PDOR
 918:F:\kalkulyator-workspace-v2\TeensyCore3\src\core_pins.h **** #define CORE_PIN25_PORTREG	GPIOA_PDOR
 919:F:\kalkulyator-workspace-v2\TeensyCore3\src\core_pins.h **** #define CORE_PIN26_PORTREG	GPIOA_PDOR
 920:F:\kalkulyator-workspace-v2\TeensyCore3\src\core_pins.h **** #define CORE_PIN27_PORTREG	GPIOA_PDOR
 921:F:\kalkulyator-workspace-v2\TeensyCore3\src\core_pins.h **** #define CORE_PIN28_PORTREG	GPIOA_PDOR
 922:F:\kalkulyator-workspace-v2\TeensyCore3\src\core_pins.h **** #define CORE_PIN29_PORTREG	GPIOB_PDOR
 923:F:\kalkulyator-workspace-v2\TeensyCore3\src\core_pins.h **** #define CORE_PIN30_PORTREG	GPIOB_PDOR
 924:F:\kalkulyator-workspace-v2\TeensyCore3\src\core_pins.h **** #define CORE_PIN31_PORTREG	GPIOB_PDOR
 925:F:\kalkulyator-workspace-v2\TeensyCore3\src\core_pins.h **** #define CORE_PIN32_PORTREG	GPIOB_PDOR
 926:F:\kalkulyator-workspace-v2\TeensyCore3\src\core_pins.h **** #define CORE_PIN33_PORTREG	GPIOE_PDOR
 927:F:\kalkulyator-workspace-v2\TeensyCore3\src\core_pins.h **** #define CORE_PIN34_PORTREG	GPIOE_PDOR
 928:F:\kalkulyator-workspace-v2\TeensyCore3\src\core_pins.h **** #define CORE_PIN35_PORTREG	GPIOC_PDOR
 929:F:\kalkulyator-workspace-v2\TeensyCore3\src\core_pins.h **** #define CORE_PIN36_PORTREG	GPIOC_PDOR
 930:F:\kalkulyator-workspace-v2\TeensyCore3\src\core_pins.h **** #define CORE_PIN37_PORTREG	GPIOC_PDOR
 931:F:\kalkulyator-workspace-v2\TeensyCore3\src\core_pins.h **** #define CORE_PIN38_PORTREG	GPIOC_PDOR
 932:F:\kalkulyator-workspace-v2\TeensyCore3\src\core_pins.h **** #define CORE_PIN39_PORTREG	GPIOA_PDOR
 933:F:\kalkulyator-workspace-v2\TeensyCore3\src\core_pins.h **** #define CORE_PIN40_PORTREG	GPIOA_PDOR
 934:F:\kalkulyator-workspace-v2\TeensyCore3\src\core_pins.h **** #define CORE_PIN41_PORTREG	GPIOA_PDOR
 935:F:\kalkulyator-workspace-v2\TeensyCore3\src\core_pins.h **** #define CORE_PIN42_PORTREG	GPIOA_PDOR
 936:F:\kalkulyator-workspace-v2\TeensyCore3\src\core_pins.h **** #define CORE_PIN43_PORTREG	GPIOB_PDOR
 937:F:\kalkulyator-workspace-v2\TeensyCore3\src\core_pins.h **** #define CORE_PIN44_PORTREG	GPIOB_PDOR
 938:F:\kalkulyator-workspace-v2\TeensyCore3\src\core_pins.h **** #define CORE_PIN45_PORTREG	GPIOB_PDOR
 939:F:\kalkulyator-workspace-v2\TeensyCore3\src\core_pins.h **** #define CORE_PIN46_PORTREG	GPIOB_PDOR
 940:F:\kalkulyator-workspace-v2\TeensyCore3\src\core_pins.h **** #define CORE_PIN47_PORTREG	GPIOD_PDOR
 941:F:\kalkulyator-workspace-v2\TeensyCore3\src\core_pins.h **** #define CORE_PIN48_PORTREG	GPIOD_PDOR
 942:F:\kalkulyator-workspace-v2\TeensyCore3\src\core_pins.h **** #define CORE_PIN49_PORTREG	GPIOB_PDOR
 943:F:\kalkulyator-workspace-v2\TeensyCore3\src\core_pins.h **** #define CORE_PIN50_PORTREG	GPIOB_PDOR
 944:F:\kalkulyator-workspace-v2\TeensyCore3\src\core_pins.h **** #define CORE_PIN51_PORTREG	GPIOD_PDOR
 945:F:\kalkulyator-workspace-v2\TeensyCore3\src\core_pins.h **** #define CORE_PIN52_PORTREG	GPIOD_PDOR
 946:F:\kalkulyator-workspace-v2\TeensyCore3\src\core_pins.h **** #define CORE_PIN53_PORTREG	GPIOD_PDOR
 947:F:\kalkulyator-workspace-v2\TeensyCore3\src\core_pins.h **** #define CORE_PIN54_PORTREG	GPIOD_PDOR
 948:F:\kalkulyator-workspace-v2\TeensyCore3\src\core_pins.h **** #define CORE_PIN55_PORTREG	GPIOD_PDOR
 949:F:\kalkulyator-workspace-v2\TeensyCore3\src\core_pins.h **** #define CORE_PIN56_PORTREG	GPIOE_PDOR
 950:F:\kalkulyator-workspace-v2\TeensyCore3\src\core_pins.h **** #define CORE_PIN57_PORTREG	GPIOE_PDOR
 951:F:\kalkulyator-workspace-v2\TeensyCore3\src\core_pins.h **** #define CORE_PIN58_PORTREG	GPIOE_PDOR
 952:F:\kalkulyator-workspace-v2\TeensyCore3\src\core_pins.h **** #define CORE_PIN59_PORTREG	GPIOE_PDOR
 953:F:\kalkulyator-workspace-v2\TeensyCore3\src\core_pins.h **** #define CORE_PIN60_PORTREG	GPIOE_PDOR
 954:F:\kalkulyator-workspace-v2\TeensyCore3\src\core_pins.h **** #define CORE_PIN61_PORTREG	GPIOE_PDOR
 955:F:\kalkulyator-workspace-v2\TeensyCore3\src\core_pins.h **** #define CORE_PIN62_PORTREG	GPIOE_PDOR
 956:F:\kalkulyator-workspace-v2\TeensyCore3\src\core_pins.h **** #define CORE_PIN63_PORTREG	GPIOE_PDOR
 957:F:\kalkulyator-workspace-v2\TeensyCore3\src\core_pins.h **** 
 958:F:\kalkulyator-workspace-v2\TeensyCore3\src\core_pins.h **** #define CORE_PIN0_PORTSET	GPIOB_PSOR
 959:F:\kalkulyator-workspace-v2\TeensyCore3\src\core_pins.h **** #define CORE_PIN1_PORTSET	GPIOB_PSOR
 960:F:\kalkulyator-workspace-v2\TeensyCore3\src\core_pins.h **** #define CORE_PIN2_PORTSET	GPIOD_PSOR
 961:F:\kalkulyator-workspace-v2\TeensyCore3\src\core_pins.h **** #define CORE_PIN3_PORTSET	GPIOA_PSOR
 962:F:\kalkulyator-workspace-v2\TeensyCore3\src\core_pins.h **** #define CORE_PIN4_PORTSET	GPIOA_PSOR
 963:F:\kalkulyator-workspace-v2\TeensyCore3\src\core_pins.h **** #define CORE_PIN5_PORTSET	GPIOD_PSOR
 964:F:\kalkulyator-workspace-v2\TeensyCore3\src\core_pins.h **** #define CORE_PIN6_PORTSET	GPIOD_PSOR
 965:F:\kalkulyator-workspace-v2\TeensyCore3\src\core_pins.h **** #define CORE_PIN7_PORTSET	GPIOD_PSOR
 966:F:\kalkulyator-workspace-v2\TeensyCore3\src\core_pins.h **** #define CORE_PIN8_PORTSET	GPIOD_PSOR
 967:F:\kalkulyator-workspace-v2\TeensyCore3\src\core_pins.h **** #define CORE_PIN9_PORTSET	GPIOC_PSOR
 968:F:\kalkulyator-workspace-v2\TeensyCore3\src\core_pins.h **** #define CORE_PIN10_PORTSET	GPIOC_PSOR
 969:F:\kalkulyator-workspace-v2\TeensyCore3\src\core_pins.h **** #define CORE_PIN11_PORTSET	GPIOC_PSOR
 970:F:\kalkulyator-workspace-v2\TeensyCore3\src\core_pins.h **** #define CORE_PIN12_PORTSET	GPIOC_PSOR
 971:F:\kalkulyator-workspace-v2\TeensyCore3\src\core_pins.h **** #define CORE_PIN13_PORTSET	GPIOC_PSOR
 972:F:\kalkulyator-workspace-v2\TeensyCore3\src\core_pins.h **** #define CORE_PIN14_PORTSET	GPIOD_PSOR
 973:F:\kalkulyator-workspace-v2\TeensyCore3\src\core_pins.h **** #define CORE_PIN15_PORTSET	GPIOC_PSOR
 974:F:\kalkulyator-workspace-v2\TeensyCore3\src\core_pins.h **** #define CORE_PIN16_PORTSET	GPIOB_PSOR
 975:F:\kalkulyator-workspace-v2\TeensyCore3\src\core_pins.h **** #define CORE_PIN17_PORTSET	GPIOB_PSOR
 976:F:\kalkulyator-workspace-v2\TeensyCore3\src\core_pins.h **** #define CORE_PIN18_PORTSET	GPIOB_PSOR
 977:F:\kalkulyator-workspace-v2\TeensyCore3\src\core_pins.h **** #define CORE_PIN19_PORTSET	GPIOB_PSOR
 978:F:\kalkulyator-workspace-v2\TeensyCore3\src\core_pins.h **** #define CORE_PIN20_PORTSET	GPIOD_PSOR
 979:F:\kalkulyator-workspace-v2\TeensyCore3\src\core_pins.h **** #define CORE_PIN21_PORTSET	GPIOD_PSOR
 980:F:\kalkulyator-workspace-v2\TeensyCore3\src\core_pins.h **** #define CORE_PIN22_PORTSET	GPIOC_PSOR
 981:F:\kalkulyator-workspace-v2\TeensyCore3\src\core_pins.h **** #define CORE_PIN23_PORTSET	GPIOC_PSOR
 982:F:\kalkulyator-workspace-v2\TeensyCore3\src\core_pins.h **** #define CORE_PIN24_PORTSET	GPIOE_PSOR
 983:F:\kalkulyator-workspace-v2\TeensyCore3\src\core_pins.h **** #define CORE_PIN25_PORTSET	GPIOA_PSOR
 984:F:\kalkulyator-workspace-v2\TeensyCore3\src\core_pins.h **** #define CORE_PIN26_PORTSET	GPIOA_PSOR
 985:F:\kalkulyator-workspace-v2\TeensyCore3\src\core_pins.h **** #define CORE_PIN27_PORTSET	GPIOA_PSOR
 986:F:\kalkulyator-workspace-v2\TeensyCore3\src\core_pins.h **** #define CORE_PIN28_PORTSET	GPIOA_PSOR
 987:F:\kalkulyator-workspace-v2\TeensyCore3\src\core_pins.h **** #define CORE_PIN29_PORTSET	GPIOB_PSOR
 988:F:\kalkulyator-workspace-v2\TeensyCore3\src\core_pins.h **** #define CORE_PIN30_PORTSET	GPIOB_PSOR
 989:F:\kalkulyator-workspace-v2\TeensyCore3\src\core_pins.h **** #define CORE_PIN31_PORTSET	GPIOB_PSOR
 990:F:\kalkulyator-workspace-v2\TeensyCore3\src\core_pins.h **** #define CORE_PIN32_PORTSET	GPIOB_PSOR
 991:F:\kalkulyator-workspace-v2\TeensyCore3\src\core_pins.h **** #define CORE_PIN33_PORTSET	GPIOE_PSOR
 992:F:\kalkulyator-workspace-v2\TeensyCore3\src\core_pins.h **** #define CORE_PIN34_PORTSET	GPIOE_PSOR
 993:F:\kalkulyator-workspace-v2\TeensyCore3\src\core_pins.h **** #define CORE_PIN35_PORTSET	GPIOC_PSOR
 994:F:\kalkulyator-workspace-v2\TeensyCore3\src\core_pins.h **** #define CORE_PIN36_PORTSET	GPIOC_PSOR
 995:F:\kalkulyator-workspace-v2\TeensyCore3\src\core_pins.h **** #define CORE_PIN37_PORTSET	GPIOC_PSOR
 996:F:\kalkulyator-workspace-v2\TeensyCore3\src\core_pins.h **** #define CORE_PIN38_PORTSET	GPIOC_PSOR
 997:F:\kalkulyator-workspace-v2\TeensyCore3\src\core_pins.h **** #define CORE_PIN39_PORTSET	GPIOA_PSOR
 998:F:\kalkulyator-workspace-v2\TeensyCore3\src\core_pins.h **** #define CORE_PIN40_PORTSET	GPIOA_PSOR
 999:F:\kalkulyator-workspace-v2\TeensyCore3\src\core_pins.h **** #define CORE_PIN41_PORTSET	GPIOA_PSOR
1000:F:\kalkulyator-workspace-v2\TeensyCore3\src\core_pins.h **** #define CORE_PIN42_PORTSET	GPIOA_PSOR
1001:F:\kalkulyator-workspace-v2\TeensyCore3\src\core_pins.h **** #define CORE_PIN43_PORTSET	GPIOB_PSOR
1002:F:\kalkulyator-workspace-v2\TeensyCore3\src\core_pins.h **** #define CORE_PIN44_PORTSET	GPIOB_PSOR
1003:F:\kalkulyator-workspace-v2\TeensyCore3\src\core_pins.h **** #define CORE_PIN45_PORTSET	GPIOB_PSOR
1004:F:\kalkulyator-workspace-v2\TeensyCore3\src\core_pins.h **** #define CORE_PIN46_PORTSET	GPIOB_PSOR
1005:F:\kalkulyator-workspace-v2\TeensyCore3\src\core_pins.h **** #define CORE_PIN47_PORTSET	GPIOD_PSOR
1006:F:\kalkulyator-workspace-v2\TeensyCore3\src\core_pins.h **** #define CORE_PIN48_PORTSET	GPIOD_PSOR
1007:F:\kalkulyator-workspace-v2\TeensyCore3\src\core_pins.h **** #define CORE_PIN49_PORTSET	GPIOB_PSOR
1008:F:\kalkulyator-workspace-v2\TeensyCore3\src\core_pins.h **** #define CORE_PIN50_PORTSET	GPIOB_PSOR
1009:F:\kalkulyator-workspace-v2\TeensyCore3\src\core_pins.h **** #define CORE_PIN51_PORTSET	GPIOD_PSOR
1010:F:\kalkulyator-workspace-v2\TeensyCore3\src\core_pins.h **** #define CORE_PIN52_PORTSET	GPIOD_PSOR
1011:F:\kalkulyator-workspace-v2\TeensyCore3\src\core_pins.h **** #define CORE_PIN53_PORTSET	GPIOD_PSOR
1012:F:\kalkulyator-workspace-v2\TeensyCore3\src\core_pins.h **** #define CORE_PIN54_PORTSET	GPIOD_PSOR
1013:F:\kalkulyator-workspace-v2\TeensyCore3\src\core_pins.h **** #define CORE_PIN55_PORTSET	GPIOD_PSOR
1014:F:\kalkulyator-workspace-v2\TeensyCore3\src\core_pins.h **** #define CORE_PIN56_PORTSET	GPIOE_PSOR
1015:F:\kalkulyator-workspace-v2\TeensyCore3\src\core_pins.h **** #define CORE_PIN57_PORTSET	GPIOE_PSOR
1016:F:\kalkulyator-workspace-v2\TeensyCore3\src\core_pins.h **** #define CORE_PIN58_PORTSET	GPIOE_PSOR
1017:F:\kalkulyator-workspace-v2\TeensyCore3\src\core_pins.h **** #define CORE_PIN59_PORTSET	GPIOE_PSOR
1018:F:\kalkulyator-workspace-v2\TeensyCore3\src\core_pins.h **** #define CORE_PIN60_PORTSET	GPIOE_PSOR
1019:F:\kalkulyator-workspace-v2\TeensyCore3\src\core_pins.h **** #define CORE_PIN61_PORTSET	GPIOE_PSOR
1020:F:\kalkulyator-workspace-v2\TeensyCore3\src\core_pins.h **** #define CORE_PIN62_PORTSET	GPIOE_PSOR
1021:F:\kalkulyator-workspace-v2\TeensyCore3\src\core_pins.h **** #define CORE_PIN63_PORTSET	GPIOE_PSOR
1022:F:\kalkulyator-workspace-v2\TeensyCore3\src\core_pins.h **** 
1023:F:\kalkulyator-workspace-v2\TeensyCore3\src\core_pins.h **** #define CORE_PIN0_PORTCLEAR	GPIOB_PCOR
1024:F:\kalkulyator-workspace-v2\TeensyCore3\src\core_pins.h **** #define CORE_PIN1_PORTCLEAR	GPIOB_PCOR
1025:F:\kalkulyator-workspace-v2\TeensyCore3\src\core_pins.h **** #define CORE_PIN2_PORTCLEAR	GPIOD_PCOR
1026:F:\kalkulyator-workspace-v2\TeensyCore3\src\core_pins.h **** #define CORE_PIN3_PORTCLEAR	GPIOA_PCOR
1027:F:\kalkulyator-workspace-v2\TeensyCore3\src\core_pins.h **** #define CORE_PIN4_PORTCLEAR	GPIOA_PCOR
1028:F:\kalkulyator-workspace-v2\TeensyCore3\src\core_pins.h **** #define CORE_PIN5_PORTCLEAR	GPIOD_PCOR
1029:F:\kalkulyator-workspace-v2\TeensyCore3\src\core_pins.h **** #define CORE_PIN6_PORTCLEAR	GPIOD_PCOR
1030:F:\kalkulyator-workspace-v2\TeensyCore3\src\core_pins.h **** #define CORE_PIN7_PORTCLEAR	GPIOD_PCOR
1031:F:\kalkulyator-workspace-v2\TeensyCore3\src\core_pins.h **** #define CORE_PIN8_PORTCLEAR	GPIOD_PCOR
1032:F:\kalkulyator-workspace-v2\TeensyCore3\src\core_pins.h **** #define CORE_PIN9_PORTCLEAR	GPIOC_PCOR
1033:F:\kalkulyator-workspace-v2\TeensyCore3\src\core_pins.h **** #define CORE_PIN10_PORTCLEAR	GPIOC_PCOR
1034:F:\kalkulyator-workspace-v2\TeensyCore3\src\core_pins.h **** #define CORE_PIN11_PORTCLEAR	GPIOC_PCOR
1035:F:\kalkulyator-workspace-v2\TeensyCore3\src\core_pins.h **** #define CORE_PIN12_PORTCLEAR	GPIOC_PCOR
1036:F:\kalkulyator-workspace-v2\TeensyCore3\src\core_pins.h **** #define CORE_PIN13_PORTCLEAR	GPIOC_PCOR
1037:F:\kalkulyator-workspace-v2\TeensyCore3\src\core_pins.h **** #define CORE_PIN14_PORTCLEAR	GPIOD_PCOR
1038:F:\kalkulyator-workspace-v2\TeensyCore3\src\core_pins.h **** #define CORE_PIN15_PORTCLEAR	GPIOC_PCOR
1039:F:\kalkulyator-workspace-v2\TeensyCore3\src\core_pins.h **** #define CORE_PIN16_PORTCLEAR	GPIOB_PCOR
1040:F:\kalkulyator-workspace-v2\TeensyCore3\src\core_pins.h **** #define CORE_PIN17_PORTCLEAR	GPIOB_PCOR
1041:F:\kalkulyator-workspace-v2\TeensyCore3\src\core_pins.h **** #define CORE_PIN18_PORTCLEAR	GPIOB_PCOR
1042:F:\kalkulyator-workspace-v2\TeensyCore3\src\core_pins.h **** #define CORE_PIN19_PORTCLEAR	GPIOB_PCOR
1043:F:\kalkulyator-workspace-v2\TeensyCore3\src\core_pins.h **** #define CORE_PIN20_PORTCLEAR	GPIOD_PCOR
1044:F:\kalkulyator-workspace-v2\TeensyCore3\src\core_pins.h **** #define CORE_PIN21_PORTCLEAR	GPIOD_PCOR
1045:F:\kalkulyator-workspace-v2\TeensyCore3\src\core_pins.h **** #define CORE_PIN22_PORTCLEAR	GPIOC_PCOR
1046:F:\kalkulyator-workspace-v2\TeensyCore3\src\core_pins.h **** #define CORE_PIN23_PORTCLEAR	GPIOC_PCOR
1047:F:\kalkulyator-workspace-v2\TeensyCore3\src\core_pins.h **** #define CORE_PIN24_PORTCLEAR	GPIOE_PCOR
1048:F:\kalkulyator-workspace-v2\TeensyCore3\src\core_pins.h **** #define CORE_PIN25_PORTCLEAR	GPIOA_PCOR
1049:F:\kalkulyator-workspace-v2\TeensyCore3\src\core_pins.h **** #define CORE_PIN26_PORTCLEAR	GPIOA_PCOR
1050:F:\kalkulyator-workspace-v2\TeensyCore3\src\core_pins.h **** #define CORE_PIN27_PORTCLEAR	GPIOA_PCOR
1051:F:\kalkulyator-workspace-v2\TeensyCore3\src\core_pins.h **** #define CORE_PIN28_PORTCLEAR	GPIOA_PCOR
1052:F:\kalkulyator-workspace-v2\TeensyCore3\src\core_pins.h **** #define CORE_PIN29_PORTCLEAR	GPIOB_PCOR
1053:F:\kalkulyator-workspace-v2\TeensyCore3\src\core_pins.h **** #define CORE_PIN30_PORTCLEAR	GPIOB_PCOR
1054:F:\kalkulyator-workspace-v2\TeensyCore3\src\core_pins.h **** #define CORE_PIN31_PORTCLEAR	GPIOB_PCOR
1055:F:\kalkulyator-workspace-v2\TeensyCore3\src\core_pins.h **** #define CORE_PIN32_PORTCLEAR	GPIOB_PCOR
1056:F:\kalkulyator-workspace-v2\TeensyCore3\src\core_pins.h **** #define CORE_PIN33_PORTCLEAR	GPIOE_PCOR
1057:F:\kalkulyator-workspace-v2\TeensyCore3\src\core_pins.h **** #define CORE_PIN34_PORTCLEAR	GPIOE_PCOR
1058:F:\kalkulyator-workspace-v2\TeensyCore3\src\core_pins.h **** #define CORE_PIN35_PORTCLEAR	GPIOC_PCOR
1059:F:\kalkulyator-workspace-v2\TeensyCore3\src\core_pins.h **** #define CORE_PIN36_PORTCLEAR	GPIOC_PCOR
1060:F:\kalkulyator-workspace-v2\TeensyCore3\src\core_pins.h **** #define CORE_PIN37_PORTCLEAR	GPIOC_PCOR
1061:F:\kalkulyator-workspace-v2\TeensyCore3\src\core_pins.h **** #define CORE_PIN38_PORTCLEAR	GPIOC_PCOR
1062:F:\kalkulyator-workspace-v2\TeensyCore3\src\core_pins.h **** #define CORE_PIN39_PORTCLEAR	GPIOA_PCOR
1063:F:\kalkulyator-workspace-v2\TeensyCore3\src\core_pins.h **** #define CORE_PIN40_PORTCLEAR	GPIOA_PCOR
1064:F:\kalkulyator-workspace-v2\TeensyCore3\src\core_pins.h **** #define CORE_PIN41_PORTCLEAR	GPIOA_PCOR
1065:F:\kalkulyator-workspace-v2\TeensyCore3\src\core_pins.h **** #define CORE_PIN42_PORTCLEAR	GPIOA_PCOR
1066:F:\kalkulyator-workspace-v2\TeensyCore3\src\core_pins.h **** #define CORE_PIN43_PORTCLEAR	GPIOB_PCOR
1067:F:\kalkulyator-workspace-v2\TeensyCore3\src\core_pins.h **** #define CORE_PIN44_PORTCLEAR	GPIOB_PCOR
1068:F:\kalkulyator-workspace-v2\TeensyCore3\src\core_pins.h **** #define CORE_PIN45_PORTCLEAR	GPIOB_PCOR
1069:F:\kalkulyator-workspace-v2\TeensyCore3\src\core_pins.h **** #define CORE_PIN46_PORTCLEAR	GPIOB_PCOR
1070:F:\kalkulyator-workspace-v2\TeensyCore3\src\core_pins.h **** #define CORE_PIN47_PORTCLEAR	GPIOD_PCOR
1071:F:\kalkulyator-workspace-v2\TeensyCore3\src\core_pins.h **** #define CORE_PIN48_PORTCLEAR	GPIOD_PCOR
1072:F:\kalkulyator-workspace-v2\TeensyCore3\src\core_pins.h **** #define CORE_PIN49_PORTCLEAR	GPIOB_PCOR
1073:F:\kalkulyator-workspace-v2\TeensyCore3\src\core_pins.h **** #define CORE_PIN50_PORTCLEAR	GPIOB_PCOR
1074:F:\kalkulyator-workspace-v2\TeensyCore3\src\core_pins.h **** #define CORE_PIN51_PORTCLEAR	GPIOD_PCOR
1075:F:\kalkulyator-workspace-v2\TeensyCore3\src\core_pins.h **** #define CORE_PIN52_PORTCLEAR	GPIOD_PCOR
1076:F:\kalkulyator-workspace-v2\TeensyCore3\src\core_pins.h **** #define CORE_PIN53_PORTCLEAR	GPIOD_PCOR
1077:F:\kalkulyator-workspace-v2\TeensyCore3\src\core_pins.h **** #define CORE_PIN54_PORTCLEAR	GPIOD_PCOR
1078:F:\kalkulyator-workspace-v2\TeensyCore3\src\core_pins.h **** #define CORE_PIN55_PORTCLEAR	GPIOD_PCOR
1079:F:\kalkulyator-workspace-v2\TeensyCore3\src\core_pins.h **** #define CORE_PIN56_PORTCLEAR	GPIOE_PCOR
1080:F:\kalkulyator-workspace-v2\TeensyCore3\src\core_pins.h **** #define CORE_PIN57_PORTCLEAR	GPIOE_PCOR
1081:F:\kalkulyator-workspace-v2\TeensyCore3\src\core_pins.h **** #define CORE_PIN58_PORTCLEAR	GPIOE_PCOR
1082:F:\kalkulyator-workspace-v2\TeensyCore3\src\core_pins.h **** #define CORE_PIN59_PORTCLEAR	GPIOE_PCOR
1083:F:\kalkulyator-workspace-v2\TeensyCore3\src\core_pins.h **** #define CORE_PIN60_PORTCLEAR	GPIOE_PCOR
1084:F:\kalkulyator-workspace-v2\TeensyCore3\src\core_pins.h **** #define CORE_PIN61_PORTCLEAR	GPIOE_PCOR
1085:F:\kalkulyator-workspace-v2\TeensyCore3\src\core_pins.h **** #define CORE_PIN62_PORTCLEAR	GPIOE_PCOR
1086:F:\kalkulyator-workspace-v2\TeensyCore3\src\core_pins.h **** #define CORE_PIN63_PORTCLEAR	GPIOE_PCOR
1087:F:\kalkulyator-workspace-v2\TeensyCore3\src\core_pins.h **** 
1088:F:\kalkulyator-workspace-v2\TeensyCore3\src\core_pins.h **** #define CORE_PIN0_DDRREG	GPIOB_PDDR
1089:F:\kalkulyator-workspace-v2\TeensyCore3\src\core_pins.h **** #define CORE_PIN1_DDRREG	GPIOB_PDDR
1090:F:\kalkulyator-workspace-v2\TeensyCore3\src\core_pins.h **** #define CORE_PIN2_DDRREG	GPIOD_PDDR
1091:F:\kalkulyator-workspace-v2\TeensyCore3\src\core_pins.h **** #define CORE_PIN3_DDRREG	GPIOA_PDDR
1092:F:\kalkulyator-workspace-v2\TeensyCore3\src\core_pins.h **** #define CORE_PIN4_DDRREG	GPIOA_PDDR
1093:F:\kalkulyator-workspace-v2\TeensyCore3\src\core_pins.h **** #define CORE_PIN5_DDRREG	GPIOD_PDDR
1094:F:\kalkulyator-workspace-v2\TeensyCore3\src\core_pins.h **** #define CORE_PIN6_DDRREG	GPIOD_PDDR
1095:F:\kalkulyator-workspace-v2\TeensyCore3\src\core_pins.h **** #define CORE_PIN7_DDRREG	GPIOD_PDDR
1096:F:\kalkulyator-workspace-v2\TeensyCore3\src\core_pins.h **** #define CORE_PIN8_DDRREG	GPIOD_PDDR
1097:F:\kalkulyator-workspace-v2\TeensyCore3\src\core_pins.h **** #define CORE_PIN9_DDRREG	GPIOC_PDDR
1098:F:\kalkulyator-workspace-v2\TeensyCore3\src\core_pins.h **** #define CORE_PIN10_DDRREG	GPIOC_PDDR
1099:F:\kalkulyator-workspace-v2\TeensyCore3\src\core_pins.h **** #define CORE_PIN11_DDRREG	GPIOC_PDDR
1100:F:\kalkulyator-workspace-v2\TeensyCore3\src\core_pins.h **** #define CORE_PIN12_DDRREG	GPIOC_PDDR
1101:F:\kalkulyator-workspace-v2\TeensyCore3\src\core_pins.h **** #define CORE_PIN13_DDRREG	GPIOC_PDDR
1102:F:\kalkulyator-workspace-v2\TeensyCore3\src\core_pins.h **** #define CORE_PIN14_DDRREG	GPIOD_PDDR
1103:F:\kalkulyator-workspace-v2\TeensyCore3\src\core_pins.h **** #define CORE_PIN15_DDRREG	GPIOC_PDDR
1104:F:\kalkulyator-workspace-v2\TeensyCore3\src\core_pins.h **** #define CORE_PIN16_DDRREG	GPIOB_PDDR
1105:F:\kalkulyator-workspace-v2\TeensyCore3\src\core_pins.h **** #define CORE_PIN17_DDRREG	GPIOB_PDDR
1106:F:\kalkulyator-workspace-v2\TeensyCore3\src\core_pins.h **** #define CORE_PIN18_DDRREG	GPIOB_PDDR
1107:F:\kalkulyator-workspace-v2\TeensyCore3\src\core_pins.h **** #define CORE_PIN19_DDRREG	GPIOB_PDDR
1108:F:\kalkulyator-workspace-v2\TeensyCore3\src\core_pins.h **** #define CORE_PIN20_DDRREG	GPIOD_PDDR
1109:F:\kalkulyator-workspace-v2\TeensyCore3\src\core_pins.h **** #define CORE_PIN21_DDRREG	GPIOD_PDDR
1110:F:\kalkulyator-workspace-v2\TeensyCore3\src\core_pins.h **** #define CORE_PIN22_DDRREG	GPIOC_PDDR
1111:F:\kalkulyator-workspace-v2\TeensyCore3\src\core_pins.h **** #define CORE_PIN23_DDRREG	GPIOC_PDDR
1112:F:\kalkulyator-workspace-v2\TeensyCore3\src\core_pins.h **** #define CORE_PIN24_DDRREG	GPIOE_PDDR
1113:F:\kalkulyator-workspace-v2\TeensyCore3\src\core_pins.h **** #define CORE_PIN25_DDRREG	GPIOA_PDDR
1114:F:\kalkulyator-workspace-v2\TeensyCore3\src\core_pins.h **** #define CORE_PIN26_DDRREG	GPIOA_PDDR
1115:F:\kalkulyator-workspace-v2\TeensyCore3\src\core_pins.h **** #define CORE_PIN27_DDRREG	GPIOA_PDDR
1116:F:\kalkulyator-workspace-v2\TeensyCore3\src\core_pins.h **** #define CORE_PIN28_DDRREG	GPIOA_PDDR
1117:F:\kalkulyator-workspace-v2\TeensyCore3\src\core_pins.h **** #define CORE_PIN29_DDRREG	GPIOB_PDDR
1118:F:\kalkulyator-workspace-v2\TeensyCore3\src\core_pins.h **** #define CORE_PIN30_DDRREG	GPIOB_PDDR
1119:F:\kalkulyator-workspace-v2\TeensyCore3\src\core_pins.h **** #define CORE_PIN31_DDRREG	GPIOB_PDDR
1120:F:\kalkulyator-workspace-v2\TeensyCore3\src\core_pins.h **** #define CORE_PIN32_DDRREG	GPIOB_PDDR
1121:F:\kalkulyator-workspace-v2\TeensyCore3\src\core_pins.h **** #define CORE_PIN33_DDRREG	GPIOE_PDDR
1122:F:\kalkulyator-workspace-v2\TeensyCore3\src\core_pins.h **** #define CORE_PIN34_DDRREG	GPIOE_PDDR
1123:F:\kalkulyator-workspace-v2\TeensyCore3\src\core_pins.h **** #define CORE_PIN35_DDRREG	GPIOC_PDDR
1124:F:\kalkulyator-workspace-v2\TeensyCore3\src\core_pins.h **** #define CORE_PIN36_DDRREG	GPIOC_PDDR
1125:F:\kalkulyator-workspace-v2\TeensyCore3\src\core_pins.h **** #define CORE_PIN37_DDRREG	GPIOC_PDDR
1126:F:\kalkulyator-workspace-v2\TeensyCore3\src\core_pins.h **** #define CORE_PIN38_DDRREG	GPIOC_PDDR
1127:F:\kalkulyator-workspace-v2\TeensyCore3\src\core_pins.h **** #define CORE_PIN39_DDRREG	GPIOA_PDDR
1128:F:\kalkulyator-workspace-v2\TeensyCore3\src\core_pins.h **** #define CORE_PIN40_DDRREG	GPIOA_PDDR
1129:F:\kalkulyator-workspace-v2\TeensyCore3\src\core_pins.h **** #define CORE_PIN41_DDRREG	GPIOA_PDDR
1130:F:\kalkulyator-workspace-v2\TeensyCore3\src\core_pins.h **** #define CORE_PIN42_DDRREG	GPIOA_PDDR
1131:F:\kalkulyator-workspace-v2\TeensyCore3\src\core_pins.h **** #define CORE_PIN43_DDRREG	GPIOB_PDDR
1132:F:\kalkulyator-workspace-v2\TeensyCore3\src\core_pins.h **** #define CORE_PIN44_DDRREG	GPIOB_PDDR
1133:F:\kalkulyator-workspace-v2\TeensyCore3\src\core_pins.h **** #define CORE_PIN45_DDRREG	GPIOB_PDDR
1134:F:\kalkulyator-workspace-v2\TeensyCore3\src\core_pins.h **** #define CORE_PIN46_DDRREG	GPIOB_PDDR
1135:F:\kalkulyator-workspace-v2\TeensyCore3\src\core_pins.h **** #define CORE_PIN47_DDRREG	GPIOD_PDDR
1136:F:\kalkulyator-workspace-v2\TeensyCore3\src\core_pins.h **** #define CORE_PIN48_DDRREG	GPIOD_PDDR
1137:F:\kalkulyator-workspace-v2\TeensyCore3\src\core_pins.h **** #define CORE_PIN49_DDRREG	GPIOB_PDDR
1138:F:\kalkulyator-workspace-v2\TeensyCore3\src\core_pins.h **** #define CORE_PIN50_DDRREG	GPIOB_PDDR
1139:F:\kalkulyator-workspace-v2\TeensyCore3\src\core_pins.h **** #define CORE_PIN51_DDRREG	GPIOD_PDDR
1140:F:\kalkulyator-workspace-v2\TeensyCore3\src\core_pins.h **** #define CORE_PIN52_DDRREG	GPIOD_PDDR
1141:F:\kalkulyator-workspace-v2\TeensyCore3\src\core_pins.h **** #define CORE_PIN53_DDRREG	GPIOD_PDDR
1142:F:\kalkulyator-workspace-v2\TeensyCore3\src\core_pins.h **** #define CORE_PIN54_DDRREG	GPIOD_PDDR
1143:F:\kalkulyator-workspace-v2\TeensyCore3\src\core_pins.h **** #define CORE_PIN55_DDRREG	GPIOD_PDDR
1144:F:\kalkulyator-workspace-v2\TeensyCore3\src\core_pins.h **** #define CORE_PIN56_DDRREG	GPIOE_PDDR
1145:F:\kalkulyator-workspace-v2\TeensyCore3\src\core_pins.h **** #define CORE_PIN57_DDRREG	GPIOE_PDDR
1146:F:\kalkulyator-workspace-v2\TeensyCore3\src\core_pins.h **** #define CORE_PIN58_DDRREG	GPIOE_PDDR
1147:F:\kalkulyator-workspace-v2\TeensyCore3\src\core_pins.h **** #define CORE_PIN59_DDRREG	GPIOE_PDDR
1148:F:\kalkulyator-workspace-v2\TeensyCore3\src\core_pins.h **** #define CORE_PIN60_DDRREG	GPIOE_PDDR
1149:F:\kalkulyator-workspace-v2\TeensyCore3\src\core_pins.h **** #define CORE_PIN61_DDRREG	GPIOE_PDDR
1150:F:\kalkulyator-workspace-v2\TeensyCore3\src\core_pins.h **** #define CORE_PIN62_DDRREG	GPIOE_PDDR
1151:F:\kalkulyator-workspace-v2\TeensyCore3\src\core_pins.h **** #define CORE_PIN63_DDRREG	GPIOE_PDDR
1152:F:\kalkulyator-workspace-v2\TeensyCore3\src\core_pins.h **** 
1153:F:\kalkulyator-workspace-v2\TeensyCore3\src\core_pins.h **** #define CORE_PIN0_PINREG	GPIOB_PDIR
1154:F:\kalkulyator-workspace-v2\TeensyCore3\src\core_pins.h **** #define CORE_PIN1_PINREG	GPIOB_PDIR
1155:F:\kalkulyator-workspace-v2\TeensyCore3\src\core_pins.h **** #define CORE_PIN2_PINREG	GPIOD_PDIR
1156:F:\kalkulyator-workspace-v2\TeensyCore3\src\core_pins.h **** #define CORE_PIN3_PINREG	GPIOA_PDIR
1157:F:\kalkulyator-workspace-v2\TeensyCore3\src\core_pins.h **** #define CORE_PIN4_PINREG	GPIOA_PDIR
1158:F:\kalkulyator-workspace-v2\TeensyCore3\src\core_pins.h **** #define CORE_PIN5_PINREG	GPIOD_PDIR
1159:F:\kalkulyator-workspace-v2\TeensyCore3\src\core_pins.h **** #define CORE_PIN6_PINREG	GPIOD_PDIR
1160:F:\kalkulyator-workspace-v2\TeensyCore3\src\core_pins.h **** #define CORE_PIN7_PINREG	GPIOD_PDIR
1161:F:\kalkulyator-workspace-v2\TeensyCore3\src\core_pins.h **** #define CORE_PIN8_PINREG	GPIOD_PDIR
1162:F:\kalkulyator-workspace-v2\TeensyCore3\src\core_pins.h **** #define CORE_PIN9_PINREG	GPIOC_PDIR
1163:F:\kalkulyator-workspace-v2\TeensyCore3\src\core_pins.h **** #define CORE_PIN10_PINREG	GPIOC_PDIR
1164:F:\kalkulyator-workspace-v2\TeensyCore3\src\core_pins.h **** #define CORE_PIN11_PINREG	GPIOC_PDIR
1165:F:\kalkulyator-workspace-v2\TeensyCore3\src\core_pins.h **** #define CORE_PIN12_PINREG	GPIOC_PDIR
1166:F:\kalkulyator-workspace-v2\TeensyCore3\src\core_pins.h **** #define CORE_PIN13_PINREG	GPIOC_PDIR
1167:F:\kalkulyator-workspace-v2\TeensyCore3\src\core_pins.h **** #define CORE_PIN14_PINREG	GPIOD_PDIR
1168:F:\kalkulyator-workspace-v2\TeensyCore3\src\core_pins.h **** #define CORE_PIN15_PINREG	GPIOC_PDIR
1169:F:\kalkulyator-workspace-v2\TeensyCore3\src\core_pins.h **** #define CORE_PIN16_PINREG	GPIOB_PDIR
1170:F:\kalkulyator-workspace-v2\TeensyCore3\src\core_pins.h **** #define CORE_PIN17_PINREG	GPIOB_PDIR
1171:F:\kalkulyator-workspace-v2\TeensyCore3\src\core_pins.h **** #define CORE_PIN18_PINREG	GPIOB_PDIR
1172:F:\kalkulyator-workspace-v2\TeensyCore3\src\core_pins.h **** #define CORE_PIN19_PINREG	GPIOB_PDIR
1173:F:\kalkulyator-workspace-v2\TeensyCore3\src\core_pins.h **** #define CORE_PIN20_PINREG	GPIOD_PDIR
1174:F:\kalkulyator-workspace-v2\TeensyCore3\src\core_pins.h **** #define CORE_PIN21_PINREG	GPIOD_PDIR
1175:F:\kalkulyator-workspace-v2\TeensyCore3\src\core_pins.h **** #define CORE_PIN22_PINREG	GPIOC_PDIR
1176:F:\kalkulyator-workspace-v2\TeensyCore3\src\core_pins.h **** #define CORE_PIN23_PINREG	GPIOC_PDIR
1177:F:\kalkulyator-workspace-v2\TeensyCore3\src\core_pins.h **** #define CORE_PIN24_PINREG	GPIOE_PDIR
1178:F:\kalkulyator-workspace-v2\TeensyCore3\src\core_pins.h **** #define CORE_PIN25_PINREG	GPIOA_PDIR
1179:F:\kalkulyator-workspace-v2\TeensyCore3\src\core_pins.h **** #define CORE_PIN26_PINREG	GPIOA_PDIR
1180:F:\kalkulyator-workspace-v2\TeensyCore3\src\core_pins.h **** #define CORE_PIN27_PINREG	GPIOA_PDIR
1181:F:\kalkulyator-workspace-v2\TeensyCore3\src\core_pins.h **** #define CORE_PIN28_PINREG	GPIOA_PDIR
1182:F:\kalkulyator-workspace-v2\TeensyCore3\src\core_pins.h **** #define CORE_PIN29_PINREG	GPIOB_PDIR
1183:F:\kalkulyator-workspace-v2\TeensyCore3\src\core_pins.h **** #define CORE_PIN30_PINREG	GPIOB_PDIR
1184:F:\kalkulyator-workspace-v2\TeensyCore3\src\core_pins.h **** #define CORE_PIN31_PINREG	GPIOB_PDIR
1185:F:\kalkulyator-workspace-v2\TeensyCore3\src\core_pins.h **** #define CORE_PIN32_PINREG	GPIOB_PDIR
1186:F:\kalkulyator-workspace-v2\TeensyCore3\src\core_pins.h **** #define CORE_PIN33_PINREG	GPIOE_PDIR
1187:F:\kalkulyator-workspace-v2\TeensyCore3\src\core_pins.h **** #define CORE_PIN34_PINREG	GPIOE_PDIR
1188:F:\kalkulyator-workspace-v2\TeensyCore3\src\core_pins.h **** #define CORE_PIN35_PINREG	GPIOC_PDIR
1189:F:\kalkulyator-workspace-v2\TeensyCore3\src\core_pins.h **** #define CORE_PIN36_PINREG	GPIOC_PDIR
1190:F:\kalkulyator-workspace-v2\TeensyCore3\src\core_pins.h **** #define CORE_PIN37_PINREG	GPIOC_PDIR
1191:F:\kalkulyator-workspace-v2\TeensyCore3\src\core_pins.h **** #define CORE_PIN38_PINREG	GPIOC_PDIR
1192:F:\kalkulyator-workspace-v2\TeensyCore3\src\core_pins.h **** #define CORE_PIN39_PINREG	GPIOA_PDIR
1193:F:\kalkulyator-workspace-v2\TeensyCore3\src\core_pins.h **** #define CORE_PIN40_PINREG	GPIOA_PDIR
1194:F:\kalkulyator-workspace-v2\TeensyCore3\src\core_pins.h **** #define CORE_PIN41_PINREG	GPIOA_PDIR
1195:F:\kalkulyator-workspace-v2\TeensyCore3\src\core_pins.h **** #define CORE_PIN42_PINREG	GPIOA_PDIR
1196:F:\kalkulyator-workspace-v2\TeensyCore3\src\core_pins.h **** #define CORE_PIN43_PINREG	GPIOB_PDIR
1197:F:\kalkulyator-workspace-v2\TeensyCore3\src\core_pins.h **** #define CORE_PIN44_PINREG	GPIOB_PDIR
1198:F:\kalkulyator-workspace-v2\TeensyCore3\src\core_pins.h **** #define CORE_PIN45_PINREG	GPIOB_PDIR
1199:F:\kalkulyator-workspace-v2\TeensyCore3\src\core_pins.h **** #define CORE_PIN46_PINREG	GPIOB_PDIR
1200:F:\kalkulyator-workspace-v2\TeensyCore3\src\core_pins.h **** #define CORE_PIN47_PINREG	GPIOD_PDIR
1201:F:\kalkulyator-workspace-v2\TeensyCore3\src\core_pins.h **** #define CORE_PIN48_PINREG	GPIOD_PDIR
1202:F:\kalkulyator-workspace-v2\TeensyCore3\src\core_pins.h **** #define CORE_PIN49_PINREG	GPIOB_PDIR
1203:F:\kalkulyator-workspace-v2\TeensyCore3\src\core_pins.h **** #define CORE_PIN50_PINREG	GPIOB_PDIR
1204:F:\kalkulyator-workspace-v2\TeensyCore3\src\core_pins.h **** #define CORE_PIN51_PINREG	GPIOD_PDIR
1205:F:\kalkulyator-workspace-v2\TeensyCore3\src\core_pins.h **** #define CORE_PIN52_PINREG	GPIOD_PDIR
1206:F:\kalkulyator-workspace-v2\TeensyCore3\src\core_pins.h **** #define CORE_PIN53_PINREG	GPIOD_PDIR
1207:F:\kalkulyator-workspace-v2\TeensyCore3\src\core_pins.h **** #define CORE_PIN54_PINREG	GPIOD_PDIR
1208:F:\kalkulyator-workspace-v2\TeensyCore3\src\core_pins.h **** #define CORE_PIN55_PINREG	GPIOD_PDIR
1209:F:\kalkulyator-workspace-v2\TeensyCore3\src\core_pins.h **** #define CORE_PIN56_PINREG	GPIOE_PDIR
1210:F:\kalkulyator-workspace-v2\TeensyCore3\src\core_pins.h **** #define CORE_PIN57_PINREG	GPIOE_PDIR
1211:F:\kalkulyator-workspace-v2\TeensyCore3\src\core_pins.h **** #define CORE_PIN58_PINREG	GPIOE_PDIR
1212:F:\kalkulyator-workspace-v2\TeensyCore3\src\core_pins.h **** #define CORE_PIN59_PINREG	GPIOE_PDIR
1213:F:\kalkulyator-workspace-v2\TeensyCore3\src\core_pins.h **** #define CORE_PIN60_PINREG	GPIOE_PDIR
1214:F:\kalkulyator-workspace-v2\TeensyCore3\src\core_pins.h **** #define CORE_PIN61_PINREG	GPIOE_PDIR
1215:F:\kalkulyator-workspace-v2\TeensyCore3\src\core_pins.h **** #define CORE_PIN62_PINREG	GPIOE_PDIR
1216:F:\kalkulyator-workspace-v2\TeensyCore3\src\core_pins.h **** #define CORE_PIN63_PINREG	GPIOE_PDIR
1217:F:\kalkulyator-workspace-v2\TeensyCore3\src\core_pins.h **** 
1218:F:\kalkulyator-workspace-v2\TeensyCore3\src\core_pins.h **** #define CORE_PIN0_CONFIG	PORTB_PCR16
1219:F:\kalkulyator-workspace-v2\TeensyCore3\src\core_pins.h **** #define CORE_PIN1_CONFIG	PORTB_PCR17
1220:F:\kalkulyator-workspace-v2\TeensyCore3\src\core_pins.h **** #define CORE_PIN2_CONFIG	PORTD_PCR0
1221:F:\kalkulyator-workspace-v2\TeensyCore3\src\core_pins.h **** #define CORE_PIN3_CONFIG	PORTA_PCR12
1222:F:\kalkulyator-workspace-v2\TeensyCore3\src\core_pins.h **** #define CORE_PIN4_CONFIG	PORTA_PCR13
1223:F:\kalkulyator-workspace-v2\TeensyCore3\src\core_pins.h **** #define CORE_PIN5_CONFIG	PORTD_PCR7
1224:F:\kalkulyator-workspace-v2\TeensyCore3\src\core_pins.h **** #define CORE_PIN6_CONFIG	PORTD_PCR4
1225:F:\kalkulyator-workspace-v2\TeensyCore3\src\core_pins.h **** #define CORE_PIN7_CONFIG	PORTD_PCR2
1226:F:\kalkulyator-workspace-v2\TeensyCore3\src\core_pins.h **** #define CORE_PIN8_CONFIG	PORTD_PCR3
1227:F:\kalkulyator-workspace-v2\TeensyCore3\src\core_pins.h **** #define CORE_PIN9_CONFIG	PORTC_PCR3
1228:F:\kalkulyator-workspace-v2\TeensyCore3\src\core_pins.h **** #define CORE_PIN10_CONFIG	PORTC_PCR4
1229:F:\kalkulyator-workspace-v2\TeensyCore3\src\core_pins.h **** #define CORE_PIN11_CONFIG	PORTC_PCR6
1230:F:\kalkulyator-workspace-v2\TeensyCore3\src\core_pins.h **** #define CORE_PIN12_CONFIG	PORTC_PCR7
1231:F:\kalkulyator-workspace-v2\TeensyCore3\src\core_pins.h **** #define CORE_PIN13_CONFIG	PORTC_PCR5
1232:F:\kalkulyator-workspace-v2\TeensyCore3\src\core_pins.h **** #define CORE_PIN14_CONFIG	PORTD_PCR1
1233:F:\kalkulyator-workspace-v2\TeensyCore3\src\core_pins.h **** #define CORE_PIN15_CONFIG	PORTC_PCR0
1234:F:\kalkulyator-workspace-v2\TeensyCore3\src\core_pins.h **** #define CORE_PIN16_CONFIG	PORTB_PCR0
1235:F:\kalkulyator-workspace-v2\TeensyCore3\src\core_pins.h **** #define CORE_PIN17_CONFIG	PORTB_PCR1
1236:F:\kalkulyator-workspace-v2\TeensyCore3\src\core_pins.h **** #define CORE_PIN18_CONFIG	PORTB_PCR3
1237:F:\kalkulyator-workspace-v2\TeensyCore3\src\core_pins.h **** #define CORE_PIN19_CONFIG	PORTB_PCR2
1238:F:\kalkulyator-workspace-v2\TeensyCore3\src\core_pins.h **** #define CORE_PIN20_CONFIG	PORTD_PCR5
1239:F:\kalkulyator-workspace-v2\TeensyCore3\src\core_pins.h **** #define CORE_PIN21_CONFIG	PORTD_PCR6
1240:F:\kalkulyator-workspace-v2\TeensyCore3\src\core_pins.h **** #define CORE_PIN22_CONFIG	PORTC_PCR1
1241:F:\kalkulyator-workspace-v2\TeensyCore3\src\core_pins.h **** #define CORE_PIN23_CONFIG	PORTC_PCR2
1242:F:\kalkulyator-workspace-v2\TeensyCore3\src\core_pins.h **** #define CORE_PIN24_CONFIG	PORTE_PCR26
1243:F:\kalkulyator-workspace-v2\TeensyCore3\src\core_pins.h **** #define CORE_PIN25_CONFIG	PORTA_PCR5
1244:F:\kalkulyator-workspace-v2\TeensyCore3\src\core_pins.h **** #define CORE_PIN26_CONFIG	PORTA_PCR14
1245:F:\kalkulyator-workspace-v2\TeensyCore3\src\core_pins.h **** #define CORE_PIN27_CONFIG	PORTA_PCR15
1246:F:\kalkulyator-workspace-v2\TeensyCore3\src\core_pins.h **** #define CORE_PIN28_CONFIG	PORTA_PCR16
1247:F:\kalkulyator-workspace-v2\TeensyCore3\src\core_pins.h **** #define CORE_PIN29_CONFIG	PORTB_PCR18
1248:F:\kalkulyator-workspace-v2\TeensyCore3\src\core_pins.h **** #define CORE_PIN30_CONFIG	PORTB_PCR19
1249:F:\kalkulyator-workspace-v2\TeensyCore3\src\core_pins.h **** #define CORE_PIN31_CONFIG	PORTB_PCR10
1250:F:\kalkulyator-workspace-v2\TeensyCore3\src\core_pins.h **** #define CORE_PIN32_CONFIG	PORTB_PCR11
1251:F:\kalkulyator-workspace-v2\TeensyCore3\src\core_pins.h **** #define CORE_PIN33_CONFIG	PORTE_PCR24
1252:F:\kalkulyator-workspace-v2\TeensyCore3\src\core_pins.h **** #define CORE_PIN34_CONFIG	PORTE_PCR25
1253:F:\kalkulyator-workspace-v2\TeensyCore3\src\core_pins.h **** #define CORE_PIN35_CONFIG	PORTC_PCR8
1254:F:\kalkulyator-workspace-v2\TeensyCore3\src\core_pins.h **** #define CORE_PIN36_CONFIG	PORTC_PCR9
1255:F:\kalkulyator-workspace-v2\TeensyCore3\src\core_pins.h **** #define CORE_PIN37_CONFIG	PORTC_PCR10
1256:F:\kalkulyator-workspace-v2\TeensyCore3\src\core_pins.h **** #define CORE_PIN38_CONFIG	PORTC_PCR11
1257:F:\kalkulyator-workspace-v2\TeensyCore3\src\core_pins.h **** #define CORE_PIN39_CONFIG	PORTA_PCR17
1258:F:\kalkulyator-workspace-v2\TeensyCore3\src\core_pins.h **** #define CORE_PIN40_CONFIG	PORTA_PCR28
1259:F:\kalkulyator-workspace-v2\TeensyCore3\src\core_pins.h **** #define CORE_PIN41_CONFIG	PORTA_PCR29
1260:F:\kalkulyator-workspace-v2\TeensyCore3\src\core_pins.h **** #define CORE_PIN42_CONFIG	PORTA_PCR26
1261:F:\kalkulyator-workspace-v2\TeensyCore3\src\core_pins.h **** #define CORE_PIN43_CONFIG	PORTB_PCR20
1262:F:\kalkulyator-workspace-v2\TeensyCore3\src\core_pins.h **** #define CORE_PIN44_CONFIG	PORTB_PCR22
1263:F:\kalkulyator-workspace-v2\TeensyCore3\src\core_pins.h **** #define CORE_PIN45_CONFIG	PORTB_PCR23
1264:F:\kalkulyator-workspace-v2\TeensyCore3\src\core_pins.h **** #define CORE_PIN46_CONFIG	PORTB_PCR21
1265:F:\kalkulyator-workspace-v2\TeensyCore3\src\core_pins.h **** #define CORE_PIN47_CONFIG	PORTD_PCR8
1266:F:\kalkulyator-workspace-v2\TeensyCore3\src\core_pins.h **** #define CORE_PIN48_CONFIG	PORTD_PCR9
1267:F:\kalkulyator-workspace-v2\TeensyCore3\src\core_pins.h **** #define CORE_PIN49_CONFIG	PORTB_PCR4
1268:F:\kalkulyator-workspace-v2\TeensyCore3\src\core_pins.h **** #define CORE_PIN50_CONFIG	PORTB_PCR5
1269:F:\kalkulyator-workspace-v2\TeensyCore3\src\core_pins.h **** #define CORE_PIN51_CONFIG	PORTD_PCR14
1270:F:\kalkulyator-workspace-v2\TeensyCore3\src\core_pins.h **** #define CORE_PIN52_CONFIG	PORTD_PCR13
1271:F:\kalkulyator-workspace-v2\TeensyCore3\src\core_pins.h **** #define CORE_PIN53_CONFIG	PORTD_PCR12
1272:F:\kalkulyator-workspace-v2\TeensyCore3\src\core_pins.h **** #define CORE_PIN54_CONFIG	PORTD_PCR15
1273:F:\kalkulyator-workspace-v2\TeensyCore3\src\core_pins.h **** #define CORE_PIN55_CONFIG	PORTD_PCR11
1274:F:\kalkulyator-workspace-v2\TeensyCore3\src\core_pins.h **** #define CORE_PIN56_CONFIG	PORTE_PCR10
1275:F:\kalkulyator-workspace-v2\TeensyCore3\src\core_pins.h **** #define CORE_PIN57_CONFIG	PORTE_PCR11
1276:F:\kalkulyator-workspace-v2\TeensyCore3\src\core_pins.h **** #define CORE_PIN58_CONFIG	PORTE_PCR0
1277:F:\kalkulyator-workspace-v2\TeensyCore3\src\core_pins.h **** #define CORE_PIN59_CONFIG	PORTE_PCR1
1278:F:\kalkulyator-workspace-v2\TeensyCore3\src\core_pins.h **** #define CORE_PIN60_CONFIG	PORTE_PCR2
1279:F:\kalkulyator-workspace-v2\TeensyCore3\src\core_pins.h **** #define CORE_PIN61_CONFIG	PORTE_PCR3
1280:F:\kalkulyator-workspace-v2\TeensyCore3\src\core_pins.h **** #define CORE_PIN62_CONFIG	PORTE_PCR4
1281:F:\kalkulyator-workspace-v2\TeensyCore3\src\core_pins.h **** #define CORE_PIN63_CONFIG	PORTE_PCR5
1282:F:\kalkulyator-workspace-v2\TeensyCore3\src\core_pins.h **** 
1283:F:\kalkulyator-workspace-v2\TeensyCore3\src\core_pins.h **** #define CORE_ADC0_PIN		14
1284:F:\kalkulyator-workspace-v2\TeensyCore3\src\core_pins.h **** #define CORE_ADC1_PIN		15
1285:F:\kalkulyator-workspace-v2\TeensyCore3\src\core_pins.h **** #define CORE_ADC2_PIN		16
1286:F:\kalkulyator-workspace-v2\TeensyCore3\src\core_pins.h **** #define CORE_ADC3_PIN		17
1287:F:\kalkulyator-workspace-v2\TeensyCore3\src\core_pins.h **** #define CORE_ADC4_PIN		18
1288:F:\kalkulyator-workspace-v2\TeensyCore3\src\core_pins.h **** #define CORE_ADC5_PIN		19
1289:F:\kalkulyator-workspace-v2\TeensyCore3\src\core_pins.h **** #define CORE_ADC6_PIN		20
1290:F:\kalkulyator-workspace-v2\TeensyCore3\src\core_pins.h **** #define CORE_ADC7_PIN		21
1291:F:\kalkulyator-workspace-v2\TeensyCore3\src\core_pins.h **** #define CORE_ADC8_PIN		22
1292:F:\kalkulyator-workspace-v2\TeensyCore3\src\core_pins.h **** #define CORE_ADC9_PIN		23
1293:F:\kalkulyator-workspace-v2\TeensyCore3\src\core_pins.h **** #define CORE_ADC10_PIN		64
1294:F:\kalkulyator-workspace-v2\TeensyCore3\src\core_pins.h **** #define CORE_ADC11_PIN		65
1295:F:\kalkulyator-workspace-v2\TeensyCore3\src\core_pins.h **** #define CORE_ADC12_PIN		31
1296:F:\kalkulyator-workspace-v2\TeensyCore3\src\core_pins.h **** #define CORE_ADC13_PIN		32
1297:F:\kalkulyator-workspace-v2\TeensyCore3\src\core_pins.h **** #define CORE_ADC14_PIN		33
1298:F:\kalkulyator-workspace-v2\TeensyCore3\src\core_pins.h **** #define CORE_ADC15_PIN		34
1299:F:\kalkulyator-workspace-v2\TeensyCore3\src\core_pins.h **** #define CORE_ADC16_PIN		35
1300:F:\kalkulyator-workspace-v2\TeensyCore3\src\core_pins.h **** #define CORE_ADC17_PIN		36
1301:F:\kalkulyator-workspace-v2\TeensyCore3\src\core_pins.h **** #define CORE_ADC18_PIN		37
1302:F:\kalkulyator-workspace-v2\TeensyCore3\src\core_pins.h **** #define CORE_ADC19_PIN		38
1303:F:\kalkulyator-workspace-v2\TeensyCore3\src\core_pins.h **** #define CORE_ADC20_PIN		39
1304:F:\kalkulyator-workspace-v2\TeensyCore3\src\core_pins.h **** #define CORE_ADC21_PIN		66
1305:F:\kalkulyator-workspace-v2\TeensyCore3\src\core_pins.h **** #define CORE_ADC22_PIN		67
1306:F:\kalkulyator-workspace-v2\TeensyCore3\src\core_pins.h **** #define CORE_ADC23_PIN		49
1307:F:\kalkulyator-workspace-v2\TeensyCore3\src\core_pins.h **** #define CORE_ADC24_PIN		50
1308:F:\kalkulyator-workspace-v2\TeensyCore3\src\core_pins.h **** #define CORE_ADC25_PIN		68
1309:F:\kalkulyator-workspace-v2\TeensyCore3\src\core_pins.h **** #define CORE_ADC26_PIN		69
1310:F:\kalkulyator-workspace-v2\TeensyCore3\src\core_pins.h **** 
1311:F:\kalkulyator-workspace-v2\TeensyCore3\src\core_pins.h **** #define CORE_RXD0_PIN		0
1312:F:\kalkulyator-workspace-v2\TeensyCore3\src\core_pins.h **** #define CORE_TXD0_PIN		1
1313:F:\kalkulyator-workspace-v2\TeensyCore3\src\core_pins.h **** #define CORE_RXD1_PIN		9
1314:F:\kalkulyator-workspace-v2\TeensyCore3\src\core_pins.h **** #define CORE_TXD1_PIN		10
1315:F:\kalkulyator-workspace-v2\TeensyCore3\src\core_pins.h **** #define CORE_RXD2_PIN		7
1316:F:\kalkulyator-workspace-v2\TeensyCore3\src\core_pins.h **** #define CORE_TXD2_PIN		8
1317:F:\kalkulyator-workspace-v2\TeensyCore3\src\core_pins.h **** #define CORE_RXD3_PIN		31
1318:F:\kalkulyator-workspace-v2\TeensyCore3\src\core_pins.h **** #define CORE_TXD3_PIN		32
1319:F:\kalkulyator-workspace-v2\TeensyCore3\src\core_pins.h **** #define CORE_RXD4_PIN		34
1320:F:\kalkulyator-workspace-v2\TeensyCore3\src\core_pins.h **** #define CORE_TXD4_PIN		33
1321:F:\kalkulyator-workspace-v2\TeensyCore3\src\core_pins.h **** 
1322:F:\kalkulyator-workspace-v2\TeensyCore3\src\core_pins.h **** #define CORE_INT0_PIN		0
1323:F:\kalkulyator-workspace-v2\TeensyCore3\src\core_pins.h **** #define CORE_INT1_PIN		1
1324:F:\kalkulyator-workspace-v2\TeensyCore3\src\core_pins.h **** #define CORE_INT2_PIN		2
1325:F:\kalkulyator-workspace-v2\TeensyCore3\src\core_pins.h **** #define CORE_INT3_PIN		3
1326:F:\kalkulyator-workspace-v2\TeensyCore3\src\core_pins.h **** #define CORE_INT4_PIN		4
1327:F:\kalkulyator-workspace-v2\TeensyCore3\src\core_pins.h **** #define CORE_INT5_PIN		5
1328:F:\kalkulyator-workspace-v2\TeensyCore3\src\core_pins.h **** #define CORE_INT6_PIN		6
1329:F:\kalkulyator-workspace-v2\TeensyCore3\src\core_pins.h **** #define CORE_INT7_PIN		7
1330:F:\kalkulyator-workspace-v2\TeensyCore3\src\core_pins.h **** #define CORE_INT8_PIN		8
1331:F:\kalkulyator-workspace-v2\TeensyCore3\src\core_pins.h **** #define CORE_INT9_PIN		9
1332:F:\kalkulyator-workspace-v2\TeensyCore3\src\core_pins.h **** #define CORE_INT10_PIN		10
1333:F:\kalkulyator-workspace-v2\TeensyCore3\src\core_pins.h **** #define CORE_INT11_PIN		11
1334:F:\kalkulyator-workspace-v2\TeensyCore3\src\core_pins.h **** #define CORE_INT12_PIN		12
1335:F:\kalkulyator-workspace-v2\TeensyCore3\src\core_pins.h **** #define CORE_INT13_PIN		13
1336:F:\kalkulyator-workspace-v2\TeensyCore3\src\core_pins.h **** #define CORE_INT14_PIN		14
1337:F:\kalkulyator-workspace-v2\TeensyCore3\src\core_pins.h **** #define CORE_INT15_PIN		15
1338:F:\kalkulyator-workspace-v2\TeensyCore3\src\core_pins.h **** #define CORE_INT16_PIN		16
1339:F:\kalkulyator-workspace-v2\TeensyCore3\src\core_pins.h **** #define CORE_INT17_PIN		17
1340:F:\kalkulyator-workspace-v2\TeensyCore3\src\core_pins.h **** #define CORE_INT18_PIN		18
1341:F:\kalkulyator-workspace-v2\TeensyCore3\src\core_pins.h **** #define CORE_INT19_PIN		19
1342:F:\kalkulyator-workspace-v2\TeensyCore3\src\core_pins.h **** #define CORE_INT20_PIN		20
1343:F:\kalkulyator-workspace-v2\TeensyCore3\src\core_pins.h **** #define CORE_INT21_PIN		21
1344:F:\kalkulyator-workspace-v2\TeensyCore3\src\core_pins.h **** #define CORE_INT22_PIN		22
1345:F:\kalkulyator-workspace-v2\TeensyCore3\src\core_pins.h **** #define CORE_INT23_PIN		23
1346:F:\kalkulyator-workspace-v2\TeensyCore3\src\core_pins.h **** #define CORE_INT24_PIN		24
1347:F:\kalkulyator-workspace-v2\TeensyCore3\src\core_pins.h **** #define CORE_INT25_PIN		25
1348:F:\kalkulyator-workspace-v2\TeensyCore3\src\core_pins.h **** #define CORE_INT26_PIN		26
1349:F:\kalkulyator-workspace-v2\TeensyCore3\src\core_pins.h **** #define CORE_INT27_PIN		27
1350:F:\kalkulyator-workspace-v2\TeensyCore3\src\core_pins.h **** #define CORE_INT28_PIN		28
1351:F:\kalkulyator-workspace-v2\TeensyCore3\src\core_pins.h **** #define CORE_INT29_PIN		29
1352:F:\kalkulyator-workspace-v2\TeensyCore3\src\core_pins.h **** #define CORE_INT30_PIN		30
1353:F:\kalkulyator-workspace-v2\TeensyCore3\src\core_pins.h **** #define CORE_INT31_PIN		31
1354:F:\kalkulyator-workspace-v2\TeensyCore3\src\core_pins.h **** #define CORE_INT32_PIN		32
1355:F:\kalkulyator-workspace-v2\TeensyCore3\src\core_pins.h **** #define CORE_INT33_PIN		33
1356:F:\kalkulyator-workspace-v2\TeensyCore3\src\core_pins.h **** #define CORE_INT34_PIN		34
1357:F:\kalkulyator-workspace-v2\TeensyCore3\src\core_pins.h **** #define CORE_INT35_PIN		35
1358:F:\kalkulyator-workspace-v2\TeensyCore3\src\core_pins.h **** #define CORE_INT36_PIN		36
1359:F:\kalkulyator-workspace-v2\TeensyCore3\src\core_pins.h **** #define CORE_INT37_PIN		37
1360:F:\kalkulyator-workspace-v2\TeensyCore3\src\core_pins.h **** #define CORE_INT38_PIN		38
1361:F:\kalkulyator-workspace-v2\TeensyCore3\src\core_pins.h **** #define CORE_INT39_PIN		39
1362:F:\kalkulyator-workspace-v2\TeensyCore3\src\core_pins.h **** #define CORE_INT40_PIN		40
1363:F:\kalkulyator-workspace-v2\TeensyCore3\src\core_pins.h **** #define CORE_INT41_PIN		41
1364:F:\kalkulyator-workspace-v2\TeensyCore3\src\core_pins.h **** #define CORE_INT42_PIN		42
1365:F:\kalkulyator-workspace-v2\TeensyCore3\src\core_pins.h **** #define CORE_INT43_PIN		43
1366:F:\kalkulyator-workspace-v2\TeensyCore3\src\core_pins.h **** #define CORE_INT44_PIN		44
1367:F:\kalkulyator-workspace-v2\TeensyCore3\src\core_pins.h **** #define CORE_INT45_PIN		45
1368:F:\kalkulyator-workspace-v2\TeensyCore3\src\core_pins.h **** #define CORE_INT46_PIN		46
1369:F:\kalkulyator-workspace-v2\TeensyCore3\src\core_pins.h **** #define CORE_INT47_PIN		47
1370:F:\kalkulyator-workspace-v2\TeensyCore3\src\core_pins.h **** #define CORE_INT48_PIN		48
1371:F:\kalkulyator-workspace-v2\TeensyCore3\src\core_pins.h **** #define CORE_INT49_PIN		49
1372:F:\kalkulyator-workspace-v2\TeensyCore3\src\core_pins.h **** #define CORE_INT50_PIN		50
1373:F:\kalkulyator-workspace-v2\TeensyCore3\src\core_pins.h **** #define CORE_INT51_PIN		51
1374:F:\kalkulyator-workspace-v2\TeensyCore3\src\core_pins.h **** #define CORE_INT52_PIN		52
1375:F:\kalkulyator-workspace-v2\TeensyCore3\src\core_pins.h **** #define CORE_INT53_PIN		53
1376:F:\kalkulyator-workspace-v2\TeensyCore3\src\core_pins.h **** #define CORE_INT54_PIN		54
1377:F:\kalkulyator-workspace-v2\TeensyCore3\src\core_pins.h **** #define CORE_INT55_PIN		55
1378:F:\kalkulyator-workspace-v2\TeensyCore3\src\core_pins.h **** #define CORE_INT56_PIN		56
1379:F:\kalkulyator-workspace-v2\TeensyCore3\src\core_pins.h **** #define CORE_INT57_PIN		57
1380:F:\kalkulyator-workspace-v2\TeensyCore3\src\core_pins.h **** #define CORE_INT58_PIN		58
1381:F:\kalkulyator-workspace-v2\TeensyCore3\src\core_pins.h **** #define CORE_INT59_PIN		59
1382:F:\kalkulyator-workspace-v2\TeensyCore3\src\core_pins.h **** #define CORE_INT60_PIN		60
1383:F:\kalkulyator-workspace-v2\TeensyCore3\src\core_pins.h **** #define CORE_INT61_PIN		61
1384:F:\kalkulyator-workspace-v2\TeensyCore3\src\core_pins.h **** #define CORE_INT62_PIN		62
1385:F:\kalkulyator-workspace-v2\TeensyCore3\src\core_pins.h **** #define CORE_INT63_PIN		63
1386:F:\kalkulyator-workspace-v2\TeensyCore3\src\core_pins.h **** #define CORE_INT_EVERY_PIN	1
1387:F:\kalkulyator-workspace-v2\TeensyCore3\src\core_pins.h **** 
1388:F:\kalkulyator-workspace-v2\TeensyCore3\src\core_pins.h **** #elif defined(__FRDM_K64F__)
1389:F:\kalkulyator-workspace-v2\TeensyCore3\src\core_pins.h **** 
1390:F:\kalkulyator-workspace-v2\TeensyCore3\src\core_pins.h **** #define CORE_PIN0_BIT       26
1391:F:\kalkulyator-workspace-v2\TeensyCore3\src\core_pins.h **** #define CORE_PIN1_BIT       17
1392:F:\kalkulyator-workspace-v2\TeensyCore3\src\core_pins.h **** #define CORE_PIN2_BIT       0
1393:F:\kalkulyator-workspace-v2\TeensyCore3\src\core_pins.h **** #define CORE_PIN3_BIT       12
1394:F:\kalkulyator-workspace-v2\TeensyCore3\src\core_pins.h **** #define CORE_PIN4_BIT       13
1395:F:\kalkulyator-workspace-v2\TeensyCore3\src\core_pins.h **** #define CORE_PIN5_BIT       7
1396:F:\kalkulyator-workspace-v2\TeensyCore3\src\core_pins.h **** #define CORE_PIN6_BIT       4
1397:F:\kalkulyator-workspace-v2\TeensyCore3\src\core_pins.h **** #define CORE_PIN7_BIT       2
1398:F:\kalkulyator-workspace-v2\TeensyCore3\src\core_pins.h **** #define CORE_PIN8_BIT       3
1399:F:\kalkulyator-workspace-v2\TeensyCore3\src\core_pins.h **** #define CORE_PIN9_BIT       3
1400:F:\kalkulyator-workspace-v2\TeensyCore3\src\core_pins.h **** #define CORE_PIN10_BIT      4
1401:F:\kalkulyator-workspace-v2\TeensyCore3\src\core_pins.h **** #define CORE_PIN11_BIT      6
1402:F:\kalkulyator-workspace-v2\TeensyCore3\src\core_pins.h **** #define CORE_PIN12_BIT      7
1403:F:\kalkulyator-workspace-v2\TeensyCore3\src\core_pins.h **** #define CORE_PIN13_BIT      5
1404:F:\kalkulyator-workspace-v2\TeensyCore3\src\core_pins.h **** #define CORE_PIN14_BIT      1
1405:F:\kalkulyator-workspace-v2\TeensyCore3\src\core_pins.h **** #define CORE_PIN15_BIT      0
1406:F:\kalkulyator-workspace-v2\TeensyCore3\src\core_pins.h **** #define CORE_PIN16_BIT      0
1407:F:\kalkulyator-workspace-v2\TeensyCore3\src\core_pins.h **** #define CORE_PIN17_BIT      1
1408:F:\kalkulyator-workspace-v2\TeensyCore3\src\core_pins.h **** #define CORE_PIN18_BIT      3
1409:F:\kalkulyator-workspace-v2\TeensyCore3\src\core_pins.h **** #define CORE_PIN19_BIT      2
1410:F:\kalkulyator-workspace-v2\TeensyCore3\src\core_pins.h **** #define CORE_PIN20_BIT      5
1411:F:\kalkulyator-workspace-v2\TeensyCore3\src\core_pins.h **** #define CORE_PIN21_BIT      6
1412:F:\kalkulyator-workspace-v2\TeensyCore3\src\core_pins.h **** #define CORE_PIN22_BIT      1
1413:F:\kalkulyator-workspace-v2\TeensyCore3\src\core_pins.h **** #define CORE_PIN23_BIT      2
1414:F:\kalkulyator-workspace-v2\TeensyCore3\src\core_pins.h **** #define CORE_PIN24_BIT      26
1415:F:\kalkulyator-workspace-v2\TeensyCore3\src\core_pins.h **** #define CORE_PIN25_BIT      5
1416:F:\kalkulyator-workspace-v2\TeensyCore3\src\core_pins.h **** #define CORE_PIN26_BIT      14
1417:F:\kalkulyator-workspace-v2\TeensyCore3\src\core_pins.h **** #define CORE_PIN27_BIT      15
1418:F:\kalkulyator-workspace-v2\TeensyCore3\src\core_pins.h **** #define CORE_PIN28_BIT      16
1419:F:\kalkulyator-workspace-v2\TeensyCore3\src\core_pins.h **** #define CORE_PIN29_BIT      18
1420:F:\kalkulyator-workspace-v2\TeensyCore3\src\core_pins.h **** #define CORE_PIN30_BIT      19
1421:F:\kalkulyator-workspace-v2\TeensyCore3\src\core_pins.h **** #define CORE_PIN31_BIT      10
1422:F:\kalkulyator-workspace-v2\TeensyCore3\src\core_pins.h **** #define CORE_PIN32_BIT      11
1423:F:\kalkulyator-workspace-v2\TeensyCore3\src\core_pins.h **** #define CORE_PIN33_BIT      24
1424:F:\kalkulyator-workspace-v2\TeensyCore3\src\core_pins.h **** #define CORE_PIN34_BIT      25
1425:F:\kalkulyator-workspace-v2\TeensyCore3\src\core_pins.h **** #define CORE_PIN35_BIT      8
1426:F:\kalkulyator-workspace-v2\TeensyCore3\src\core_pins.h **** #define CORE_PIN36_BIT      9
1427:F:\kalkulyator-workspace-v2\TeensyCore3\src\core_pins.h **** #define CORE_PIN37_BIT      10
1428:F:\kalkulyator-workspace-v2\TeensyCore3\src\core_pins.h **** #define CORE_PIN38_BIT      11
1429:F:\kalkulyator-workspace-v2\TeensyCore3\src\core_pins.h **** #define CORE_PIN39_BIT      17
1430:F:\kalkulyator-workspace-v2\TeensyCore3\src\core_pins.h **** #define CORE_PIN40_BIT      28
1431:F:\kalkulyator-workspace-v2\TeensyCore3\src\core_pins.h **** #define CORE_PIN41_BIT      29
1432:F:\kalkulyator-workspace-v2\TeensyCore3\src\core_pins.h **** #define CORE_PIN42_BIT      26
1433:F:\kalkulyator-workspace-v2\TeensyCore3\src\core_pins.h **** #define CORE_PIN43_BIT      20
1434:F:\kalkulyator-workspace-v2\TeensyCore3\src\core_pins.h **** #define CORE_PIN44_BIT      22
1435:F:\kalkulyator-workspace-v2\TeensyCore3\src\core_pins.h **** #define CORE_PIN45_BIT      23
1436:F:\kalkulyator-workspace-v2\TeensyCore3\src\core_pins.h **** #define CORE_PIN46_BIT      21
1437:F:\kalkulyator-workspace-v2\TeensyCore3\src\core_pins.h **** #define CORE_PIN47_BIT      8
1438:F:\kalkulyator-workspace-v2\TeensyCore3\src\core_pins.h **** #define CORE_PIN48_BIT      9
1439:F:\kalkulyator-workspace-v2\TeensyCore3\src\core_pins.h **** #define CORE_PIN49_BIT      4
1440:F:\kalkulyator-workspace-v2\TeensyCore3\src\core_pins.h **** #define CORE_PIN50_BIT      5
1441:F:\kalkulyator-workspace-v2\TeensyCore3\src\core_pins.h **** #define CORE_PIN51_BIT      14
1442:F:\kalkulyator-workspace-v2\TeensyCore3\src\core_pins.h **** #define CORE_PIN52_BIT      13
1443:F:\kalkulyator-workspace-v2\TeensyCore3\src\core_pins.h **** #define CORE_PIN53_BIT      12
1444:F:\kalkulyator-workspace-v2\TeensyCore3\src\core_pins.h **** #define CORE_PIN54_BIT      15
1445:F:\kalkulyator-workspace-v2\TeensyCore3\src\core_pins.h **** #define CORE_PIN55_BIT      11
1446:F:\kalkulyator-workspace-v2\TeensyCore3\src\core_pins.h **** #define CORE_PIN56_BIT      10
1447:F:\kalkulyator-workspace-v2\TeensyCore3\src\core_pins.h **** #define CORE_PIN57_BIT      11
1448:F:\kalkulyator-workspace-v2\TeensyCore3\src\core_pins.h **** #define CORE_PIN58_BIT      0
1449:F:\kalkulyator-workspace-v2\TeensyCore3\src\core_pins.h **** #define CORE_PIN59_BIT      1
1450:F:\kalkulyator-workspace-v2\TeensyCore3\src\core_pins.h **** #define CORE_PIN60_BIT      2
1451:F:\kalkulyator-workspace-v2\TeensyCore3\src\core_pins.h **** #define CORE_PIN61_BIT      3
1452:F:\kalkulyator-workspace-v2\TeensyCore3\src\core_pins.h **** #define CORE_PIN62_BIT      4
1453:F:\kalkulyator-workspace-v2\TeensyCore3\src\core_pins.h **** #define CORE_PIN63_BIT      5
1454:F:\kalkulyator-workspace-v2\TeensyCore3\src\core_pins.h **** 
1455:F:\kalkulyator-workspace-v2\TeensyCore3\src\core_pins.h **** #define CORE_PIN0_BITMASK   (1<<(CORE_PIN0_BIT))
1456:F:\kalkulyator-workspace-v2\TeensyCore3\src\core_pins.h **** #define CORE_PIN1_BITMASK   (1<<(CORE_PIN1_BIT))
1457:F:\kalkulyator-workspace-v2\TeensyCore3\src\core_pins.h **** #define CORE_PIN2_BITMASK   (1<<(CORE_PIN2_BIT))
1458:F:\kalkulyator-workspace-v2\TeensyCore3\src\core_pins.h **** #define CORE_PIN3_BITMASK   (1<<(CORE_PIN3_BIT))
1459:F:\kalkulyator-workspace-v2\TeensyCore3\src\core_pins.h **** #define CORE_PIN4_BITMASK   (1<<(CORE_PIN4_BIT))
1460:F:\kalkulyator-workspace-v2\TeensyCore3\src\core_pins.h **** #define CORE_PIN5_BITMASK   (1<<(CORE_PIN5_BIT))
1461:F:\kalkulyator-workspace-v2\TeensyCore3\src\core_pins.h **** #define CORE_PIN6_BITMASK   (1<<(CORE_PIN6_BIT))
1462:F:\kalkulyator-workspace-v2\TeensyCore3\src\core_pins.h **** #define CORE_PIN7_BITMASK   (1<<(CORE_PIN7_BIT))
1463:F:\kalkulyator-workspace-v2\TeensyCore3\src\core_pins.h **** #define CORE_PIN8_BITMASK   (1<<(CORE_PIN8_BIT))
1464:F:\kalkulyator-workspace-v2\TeensyCore3\src\core_pins.h **** #define CORE_PIN9_BITMASK   (1<<(CORE_PIN9_BIT))
1465:F:\kalkulyator-workspace-v2\TeensyCore3\src\core_pins.h **** #define CORE_PIN10_BITMASK  (1<<(CORE_PIN10_BIT))
1466:F:\kalkulyator-workspace-v2\TeensyCore3\src\core_pins.h **** #define CORE_PIN11_BITMASK  (1<<(CORE_PIN11_BIT))
1467:F:\kalkulyator-workspace-v2\TeensyCore3\src\core_pins.h **** #define CORE_PIN12_BITMASK  (1<<(CORE_PIN12_BIT))
1468:F:\kalkulyator-workspace-v2\TeensyCore3\src\core_pins.h **** #define CORE_PIN13_BITMASK  (1<<(CORE_PIN13_BIT))
1469:F:\kalkulyator-workspace-v2\TeensyCore3\src\core_pins.h **** #define CORE_PIN14_BITMASK  (1<<(CORE_PIN14_BIT))
1470:F:\kalkulyator-workspace-v2\TeensyCore3\src\core_pins.h **** #define CORE_PIN15_BITMASK  (1<<(CORE_PIN15_BIT))
1471:F:\kalkulyator-workspace-v2\TeensyCore3\src\core_pins.h **** #define CORE_PIN16_BITMASK  (1<<(CORE_PIN16_BIT))
1472:F:\kalkulyator-workspace-v2\TeensyCore3\src\core_pins.h **** #define CORE_PIN17_BITMASK  (1<<(CORE_PIN17_BIT))
1473:F:\kalkulyator-workspace-v2\TeensyCore3\src\core_pins.h **** #define CORE_PIN18_BITMASK  (1<<(CORE_PIN18_BIT))
1474:F:\kalkulyator-workspace-v2\TeensyCore3\src\core_pins.h **** #define CORE_PIN19_BITMASK  (1<<(CORE_PIN19_BIT))
1475:F:\kalkulyator-workspace-v2\TeensyCore3\src\core_pins.h **** #define CORE_PIN20_BITMASK  (1<<(CORE_PIN20_BIT))
1476:F:\kalkulyator-workspace-v2\TeensyCore3\src\core_pins.h **** #define CORE_PIN21_BITMASK  (1<<(CORE_PIN21_BIT))
1477:F:\kalkulyator-workspace-v2\TeensyCore3\src\core_pins.h **** #define CORE_PIN22_BITMASK  (1<<(CORE_PIN22_BIT))
1478:F:\kalkulyator-workspace-v2\TeensyCore3\src\core_pins.h **** #define CORE_PIN23_BITMASK  (1<<(CORE_PIN23_BIT))
1479:F:\kalkulyator-workspace-v2\TeensyCore3\src\core_pins.h **** #define CORE_PIN24_BITMASK  (1<<(CORE_PIN24_BIT))
1480:F:\kalkulyator-workspace-v2\TeensyCore3\src\core_pins.h **** #define CORE_PIN25_BITMASK  (1<<(CORE_PIN25_BIT))
1481:F:\kalkulyator-workspace-v2\TeensyCore3\src\core_pins.h **** #define CORE_PIN26_BITMASK  (1<<(CORE_PIN26_BIT))
1482:F:\kalkulyator-workspace-v2\TeensyCore3\src\core_pins.h **** #define CORE_PIN27_BITMASK  (1<<(CORE_PIN27_BIT))
1483:F:\kalkulyator-workspace-v2\TeensyCore3\src\core_pins.h **** #define CORE_PIN28_BITMASK  (1<<(CORE_PIN28_BIT))
1484:F:\kalkulyator-workspace-v2\TeensyCore3\src\core_pins.h **** #define CORE_PIN29_BITMASK  (1<<(CORE_PIN29_BIT))
1485:F:\kalkulyator-workspace-v2\TeensyCore3\src\core_pins.h **** #define CORE_PIN30_BITMASK  (1<<(CORE_PIN30_BIT))
1486:F:\kalkulyator-workspace-v2\TeensyCore3\src\core_pins.h **** #define CORE_PIN31_BITMASK  (1<<(CORE_PIN31_BIT))
1487:F:\kalkulyator-workspace-v2\TeensyCore3\src\core_pins.h **** #define CORE_PIN32_BITMASK  (1<<(CORE_PIN32_BIT))
1488:F:\kalkulyator-workspace-v2\TeensyCore3\src\core_pins.h **** #define CORE_PIN33_BITMASK  (1<<(CORE_PIN33_BIT))
1489:F:\kalkulyator-workspace-v2\TeensyCore3\src\core_pins.h **** #define CORE_PIN34_BITMASK  (1<<(CORE_PIN34_BIT))
1490:F:\kalkulyator-workspace-v2\TeensyCore3\src\core_pins.h **** #define CORE_PIN35_BITMASK  (1<<(CORE_PIN35_BIT))
1491:F:\kalkulyator-workspace-v2\TeensyCore3\src\core_pins.h **** #define CORE_PIN36_BITMASK  (1<<(CORE_PIN36_BIT))
1492:F:\kalkulyator-workspace-v2\TeensyCore3\src\core_pins.h **** #define CORE_PIN37_BITMASK  (1<<(CORE_PIN37_BIT))
1493:F:\kalkulyator-workspace-v2\TeensyCore3\src\core_pins.h **** #define CORE_PIN38_BITMASK  (1<<(CORE_PIN38_BIT))
1494:F:\kalkulyator-workspace-v2\TeensyCore3\src\core_pins.h **** #define CORE_PIN39_BITMASK  (1<<(CORE_PIN39_BIT))
1495:F:\kalkulyator-workspace-v2\TeensyCore3\src\core_pins.h **** #define CORE_PIN40_BITMASK  (1<<(CORE_PIN40_BIT))
1496:F:\kalkulyator-workspace-v2\TeensyCore3\src\core_pins.h **** #define CORE_PIN41_BITMASK  (1<<(CORE_PIN41_BIT))
1497:F:\kalkulyator-workspace-v2\TeensyCore3\src\core_pins.h **** #define CORE_PIN42_BITMASK  (1<<(CORE_PIN42_BIT))
1498:F:\kalkulyator-workspace-v2\TeensyCore3\src\core_pins.h **** #define CORE_PIN43_BITMASK  (1<<(CORE_PIN43_BIT))
1499:F:\kalkulyator-workspace-v2\TeensyCore3\src\core_pins.h **** #define CORE_PIN44_BITMASK  (1<<(CORE_PIN44_BIT))
1500:F:\kalkulyator-workspace-v2\TeensyCore3\src\core_pins.h **** #define CORE_PIN45_BITMASK  (1<<(CORE_PIN45_BIT))
1501:F:\kalkulyator-workspace-v2\TeensyCore3\src\core_pins.h **** #define CORE_PIN46_BITMASK  (1<<(CORE_PIN46_BIT))
1502:F:\kalkulyator-workspace-v2\TeensyCore3\src\core_pins.h **** #define CORE_PIN47_BITMASK  (1<<(CORE_PIN47_BIT))
1503:F:\kalkulyator-workspace-v2\TeensyCore3\src\core_pins.h **** #define CORE_PIN48_BITMASK  (1<<(CORE_PIN48_BIT))
1504:F:\kalkulyator-workspace-v2\TeensyCore3\src\core_pins.h **** #define CORE_PIN49_BITMASK  (1<<(CORE_PIN49_BIT))
1505:F:\kalkulyator-workspace-v2\TeensyCore3\src\core_pins.h **** #define CORE_PIN50_BITMASK  (1<<(CORE_PIN50_BIT))
1506:F:\kalkulyator-workspace-v2\TeensyCore3\src\core_pins.h **** #define CORE_PIN51_BITMASK  (1<<(CORE_PIN51_BIT))
1507:F:\kalkulyator-workspace-v2\TeensyCore3\src\core_pins.h **** #define CORE_PIN52_BITMASK  (1<<(CORE_PIN52_BIT))
1508:F:\kalkulyator-workspace-v2\TeensyCore3\src\core_pins.h **** #define CORE_PIN53_BITMASK  (1<<(CORE_PIN53_BIT))
1509:F:\kalkulyator-workspace-v2\TeensyCore3\src\core_pins.h **** #define CORE_PIN54_BITMASK  (1<<(CORE_PIN54_BIT))
1510:F:\kalkulyator-workspace-v2\TeensyCore3\src\core_pins.h **** #define CORE_PIN55_BITMASK  (1<<(CORE_PIN55_BIT))
1511:F:\kalkulyator-workspace-v2\TeensyCore3\src\core_pins.h **** #define CORE_PIN56_BITMASK  (1<<(CORE_PIN56_BIT))
1512:F:\kalkulyator-workspace-v2\TeensyCore3\src\core_pins.h **** #define CORE_PIN57_BITMASK  (1<<(CORE_PIN57_BIT))
1513:F:\kalkulyator-workspace-v2\TeensyCore3\src\core_pins.h **** #define CORE_PIN58_BITMASK  (1<<(CORE_PIN58_BIT))
1514:F:\kalkulyator-workspace-v2\TeensyCore3\src\core_pins.h **** #define CORE_PIN59_BITMASK  (1<<(CORE_PIN59_BIT))
1515:F:\kalkulyator-workspace-v2\TeensyCore3\src\core_pins.h **** #define CORE_PIN60_BITMASK  (1<<(CORE_PIN60_BIT))
1516:F:\kalkulyator-workspace-v2\TeensyCore3\src\core_pins.h **** #define CORE_PIN61_BITMASK  (1<<(CORE_PIN61_BIT))
1517:F:\kalkulyator-workspace-v2\TeensyCore3\src\core_pins.h **** #define CORE_PIN62_BITMASK  (1<<(CORE_PIN62_BIT))
1518:F:\kalkulyator-workspace-v2\TeensyCore3\src\core_pins.h **** #define CORE_PIN63_BITMASK  (1<<(CORE_PIN63_BIT))
1519:F:\kalkulyator-workspace-v2\TeensyCore3\src\core_pins.h **** 
1520:F:\kalkulyator-workspace-v2\TeensyCore3\src\core_pins.h **** // pin0 = green led (E26)
1521:F:\kalkulyator-workspace-v2\TeensyCore3\src\core_pins.h **** #define CORE_PIN0_PORTREG   GPIOE_PDOR
1522:F:\kalkulyator-workspace-v2\TeensyCore3\src\core_pins.h **** #define CORE_PIN1_PORTREG   GPIOB_PDOR
1523:F:\kalkulyator-workspace-v2\TeensyCore3\src\core_pins.h **** #define CORE_PIN2_PORTREG   GPIOD_PDOR
1524:F:\kalkulyator-workspace-v2\TeensyCore3\src\core_pins.h **** #define CORE_PIN3_PORTREG   GPIOA_PDOR
1525:F:\kalkulyator-workspace-v2\TeensyCore3\src\core_pins.h **** #define CORE_PIN4_PORTREG   GPIOA_PDOR
1526:F:\kalkulyator-workspace-v2\TeensyCore3\src\core_pins.h **** #define CORE_PIN5_PORTREG   GPIOD_PDOR
1527:F:\kalkulyator-workspace-v2\TeensyCore3\src\core_pins.h **** #define CORE_PIN6_PORTREG   GPIOD_PDOR
1528:F:\kalkulyator-workspace-v2\TeensyCore3\src\core_pins.h **** #define CORE_PIN7_PORTREG   GPIOD_PDOR
1529:F:\kalkulyator-workspace-v2\TeensyCore3\src\core_pins.h **** #define CORE_PIN8_PORTREG   GPIOD_PDOR
1530:F:\kalkulyator-workspace-v2\TeensyCore3\src\core_pins.h **** #define CORE_PIN9_PORTREG   GPIOC_PDOR
1531:F:\kalkulyator-workspace-v2\TeensyCore3\src\core_pins.h **** #define CORE_PIN10_PORTREG  GPIOC_PDOR
1532:F:\kalkulyator-workspace-v2\TeensyCore3\src\core_pins.h **** #define CORE_PIN11_PORTREG  GPIOC_PDOR
1533:F:\kalkulyator-workspace-v2\TeensyCore3\src\core_pins.h **** #define CORE_PIN12_PORTREG  GPIOC_PDOR
1534:F:\kalkulyator-workspace-v2\TeensyCore3\src\core_pins.h **** #define CORE_PIN13_PORTREG  GPIOC_PDOR
1535:F:\kalkulyator-workspace-v2\TeensyCore3\src\core_pins.h **** #define CORE_PIN14_PORTREG  GPIOD_PDOR
1536:F:\kalkulyator-workspace-v2\TeensyCore3\src\core_pins.h **** #define CORE_PIN15_PORTREG  GPIOC_PDOR
1537:F:\kalkulyator-workspace-v2\TeensyCore3\src\core_pins.h **** #define CORE_PIN16_PORTREG  GPIOB_PDOR
1538:F:\kalkulyator-workspace-v2\TeensyCore3\src\core_pins.h **** #define CORE_PIN17_PORTREG  GPIOB_PDOR
1539:F:\kalkulyator-workspace-v2\TeensyCore3\src\core_pins.h **** #define CORE_PIN18_PORTREG  GPIOB_PDOR
1540:F:\kalkulyator-workspace-v2\TeensyCore3\src\core_pins.h **** #define CORE_PIN19_PORTREG  GPIOB_PDOR
1541:F:\kalkulyator-workspace-v2\TeensyCore3\src\core_pins.h **** #define CORE_PIN20_PORTREG  GPIOD_PDOR
1542:F:\kalkulyator-workspace-v2\TeensyCore3\src\core_pins.h **** #define CORE_PIN21_PORTREG  GPIOD_PDOR
1543:F:\kalkulyator-workspace-v2\TeensyCore3\src\core_pins.h **** #define CORE_PIN22_PORTREG  GPIOC_PDOR
1544:F:\kalkulyator-workspace-v2\TeensyCore3\src\core_pins.h **** #define CORE_PIN23_PORTREG  GPIOC_PDOR
1545:F:\kalkulyator-workspace-v2\TeensyCore3\src\core_pins.h **** #define CORE_PIN24_PORTREG  GPIOE_PDOR
1546:F:\kalkulyator-workspace-v2\TeensyCore3\src\core_pins.h **** #define CORE_PIN25_PORTREG  GPIOA_PDOR
1547:F:\kalkulyator-workspace-v2\TeensyCore3\src\core_pins.h **** #define CORE_PIN26_PORTREG  GPIOA_PDOR
1548:F:\kalkulyator-workspace-v2\TeensyCore3\src\core_pins.h **** #define CORE_PIN27_PORTREG  GPIOA_PDOR
1549:F:\kalkulyator-workspace-v2\TeensyCore3\src\core_pins.h **** #define CORE_PIN28_PORTREG  GPIOA_PDOR
1550:F:\kalkulyator-workspace-v2\TeensyCore3\src\core_pins.h **** #define CORE_PIN29_PORTREG  GPIOB_PDOR
1551:F:\kalkulyator-workspace-v2\TeensyCore3\src\core_pins.h **** #define CORE_PIN30_PORTREG  GPIOB_PDOR
1552:F:\kalkulyator-workspace-v2\TeensyCore3\src\core_pins.h **** #define CORE_PIN31_PORTREG  GPIOB_PDOR
1553:F:\kalkulyator-workspace-v2\TeensyCore3\src\core_pins.h **** #define CORE_PIN32_PORTREG  GPIOB_PDOR
1554:F:\kalkulyator-workspace-v2\TeensyCore3\src\core_pins.h **** #define CORE_PIN33_PORTREG  GPIOE_PDOR
1555:F:\kalkulyator-workspace-v2\TeensyCore3\src\core_pins.h **** #define CORE_PIN34_PORTREG  GPIOE_PDOR
1556:F:\kalkulyator-workspace-v2\TeensyCore3\src\core_pins.h **** #define CORE_PIN35_PORTREG  GPIOC_PDOR
1557:F:\kalkulyator-workspace-v2\TeensyCore3\src\core_pins.h **** #define CORE_PIN36_PORTREG  GPIOC_PDOR
1558:F:\kalkulyator-workspace-v2\TeensyCore3\src\core_pins.h **** #define CORE_PIN37_PORTREG  GPIOC_PDOR
1559:F:\kalkulyator-workspace-v2\TeensyCore3\src\core_pins.h **** #define CORE_PIN38_PORTREG  GPIOC_PDOR
1560:F:\kalkulyator-workspace-v2\TeensyCore3\src\core_pins.h **** #define CORE_PIN39_PORTREG  GPIOA_PDOR
1561:F:\kalkulyator-workspace-v2\TeensyCore3\src\core_pins.h **** #define CORE_PIN40_PORTREG  GPIOA_PDOR
1562:F:\kalkulyator-workspace-v2\TeensyCore3\src\core_pins.h **** #define CORE_PIN41_PORTREG  GPIOA_PDOR
1563:F:\kalkulyator-workspace-v2\TeensyCore3\src\core_pins.h **** #define CORE_PIN42_PORTREG  GPIOA_PDOR
1564:F:\kalkulyator-workspace-v2\TeensyCore3\src\core_pins.h **** #define CORE_PIN43_PORTREG  GPIOB_PDOR
1565:F:\kalkulyator-workspace-v2\TeensyCore3\src\core_pins.h **** #define CORE_PIN44_PORTREG  GPIOB_PDOR
1566:F:\kalkulyator-workspace-v2\TeensyCore3\src\core_pins.h **** #define CORE_PIN45_PORTREG  GPIOB_PDOR
1567:F:\kalkulyator-workspace-v2\TeensyCore3\src\core_pins.h **** #define CORE_PIN46_PORTREG  GPIOB_PDOR
1568:F:\kalkulyator-workspace-v2\TeensyCore3\src\core_pins.h **** #define CORE_PIN47_PORTREG  GPIOD_PDOR
1569:F:\kalkulyator-workspace-v2\TeensyCore3\src\core_pins.h **** #define CORE_PIN48_PORTREG  GPIOD_PDOR
1570:F:\kalkulyator-workspace-v2\TeensyCore3\src\core_pins.h **** #define CORE_PIN49_PORTREG  GPIOB_PDOR
1571:F:\kalkulyator-workspace-v2\TeensyCore3\src\core_pins.h **** #define CORE_PIN50_PORTREG  GPIOB_PDOR
1572:F:\kalkulyator-workspace-v2\TeensyCore3\src\core_pins.h **** #define CORE_PIN51_PORTREG  GPIOD_PDOR
1573:F:\kalkulyator-workspace-v2\TeensyCore3\src\core_pins.h **** #define CORE_PIN52_PORTREG  GPIOD_PDOR
1574:F:\kalkulyator-workspace-v2\TeensyCore3\src\core_pins.h **** #define CORE_PIN53_PORTREG  GPIOD_PDOR
1575:F:\kalkulyator-workspace-v2\TeensyCore3\src\core_pins.h **** #define CORE_PIN54_PORTREG  GPIOD_PDOR
1576:F:\kalkulyator-workspace-v2\TeensyCore3\src\core_pins.h **** #define CORE_PIN55_PORTREG  GPIOD_PDOR
1577:F:\kalkulyator-workspace-v2\TeensyCore3\src\core_pins.h **** #define CORE_PIN56_PORTREG  GPIOE_PDOR
1578:F:\kalkulyator-workspace-v2\TeensyCore3\src\core_pins.h **** #define CORE_PIN57_PORTREG  GPIOE_PDOR
1579:F:\kalkulyator-workspace-v2\TeensyCore3\src\core_pins.h **** #define CORE_PIN58_PORTREG  GPIOE_PDOR
1580:F:\kalkulyator-workspace-v2\TeensyCore3\src\core_pins.h **** #define CORE_PIN59_PORTREG  GPIOE_PDOR
1581:F:\kalkulyator-workspace-v2\TeensyCore3\src\core_pins.h **** #define CORE_PIN60_PORTREG  GPIOE_PDOR
1582:F:\kalkulyator-workspace-v2\TeensyCore3\src\core_pins.h **** #define CORE_PIN61_PORTREG  GPIOE_PDOR
1583:F:\kalkulyator-workspace-v2\TeensyCore3\src\core_pins.h **** #define CORE_PIN62_PORTREG  GPIOE_PDOR
1584:F:\kalkulyator-workspace-v2\TeensyCore3\src\core_pins.h **** #define CORE_PIN63_PORTREG  GPIOE_PDOR
1585:F:\kalkulyator-workspace-v2\TeensyCore3\src\core_pins.h **** 
1586:F:\kalkulyator-workspace-v2\TeensyCore3\src\core_pins.h **** #define CORE_PIN0_PORTSET   GPIOE_PSOR
1587:F:\kalkulyator-workspace-v2\TeensyCore3\src\core_pins.h **** #define CORE_PIN1_PORTSET   GPIOB_PSOR
1588:F:\kalkulyator-workspace-v2\TeensyCore3\src\core_pins.h **** #define CORE_PIN2_PORTSET   GPIOD_PSOR
1589:F:\kalkulyator-workspace-v2\TeensyCore3\src\core_pins.h **** #define CORE_PIN3_PORTSET   GPIOA_PSOR
1590:F:\kalkulyator-workspace-v2\TeensyCore3\src\core_pins.h **** #define CORE_PIN4_PORTSET   GPIOA_PSOR
1591:F:\kalkulyator-workspace-v2\TeensyCore3\src\core_pins.h **** #define CORE_PIN5_PORTSET   GPIOD_PSOR
1592:F:\kalkulyator-workspace-v2\TeensyCore3\src\core_pins.h **** #define CORE_PIN6_PORTSET   GPIOD_PSOR
1593:F:\kalkulyator-workspace-v2\TeensyCore3\src\core_pins.h **** #define CORE_PIN7_PORTSET   GPIOD_PSOR
1594:F:\kalkulyator-workspace-v2\TeensyCore3\src\core_pins.h **** #define CORE_PIN8_PORTSET   GPIOD_PSOR
1595:F:\kalkulyator-workspace-v2\TeensyCore3\src\core_pins.h **** #define CORE_PIN9_PORTSET   GPIOC_PSOR
1596:F:\kalkulyator-workspace-v2\TeensyCore3\src\core_pins.h **** #define CORE_PIN10_PORTSET  GPIOC_PSOR
1597:F:\kalkulyator-workspace-v2\TeensyCore3\src\core_pins.h **** #define CORE_PIN11_PORTSET  GPIOC_PSOR
1598:F:\kalkulyator-workspace-v2\TeensyCore3\src\core_pins.h **** #define CORE_PIN12_PORTSET  GPIOC_PSOR
1599:F:\kalkulyator-workspace-v2\TeensyCore3\src\core_pins.h **** #define CORE_PIN13_PORTSET  GPIOC_PSOR
1600:F:\kalkulyator-workspace-v2\TeensyCore3\src\core_pins.h **** #define CORE_PIN14_PORTSET  GPIOD_PSOR
1601:F:\kalkulyator-workspace-v2\TeensyCore3\src\core_pins.h **** #define CORE_PIN15_PORTSET  GPIOC_PSOR
1602:F:\kalkulyator-workspace-v2\TeensyCore3\src\core_pins.h **** #define CORE_PIN16_PORTSET  GPIOB_PSOR
1603:F:\kalkulyator-workspace-v2\TeensyCore3\src\core_pins.h **** #define CORE_PIN17_PORTSET  GPIOB_PSOR
1604:F:\kalkulyator-workspace-v2\TeensyCore3\src\core_pins.h **** #define CORE_PIN18_PORTSET  GPIOB_PSOR
1605:F:\kalkulyator-workspace-v2\TeensyCore3\src\core_pins.h **** #define CORE_PIN19_PORTSET  GPIOB_PSOR
1606:F:\kalkulyator-workspace-v2\TeensyCore3\src\core_pins.h **** #define CORE_PIN20_PORTSET  GPIOD_PSOR
1607:F:\kalkulyator-workspace-v2\TeensyCore3\src\core_pins.h **** #define CORE_PIN21_PORTSET  GPIOD_PSOR
1608:F:\kalkulyator-workspace-v2\TeensyCore3\src\core_pins.h **** #define CORE_PIN22_PORTSET  GPIOC_PSOR
1609:F:\kalkulyator-workspace-v2\TeensyCore3\src\core_pins.h **** #define CORE_PIN23_PORTSET  GPIOC_PSOR
1610:F:\kalkulyator-workspace-v2\TeensyCore3\src\core_pins.h **** #define CORE_PIN24_PORTSET  GPIOE_PSOR
1611:F:\kalkulyator-workspace-v2\TeensyCore3\src\core_pins.h **** #define CORE_PIN25_PORTSET  GPIOA_PSOR
1612:F:\kalkulyator-workspace-v2\TeensyCore3\src\core_pins.h **** #define CORE_PIN26_PORTSET  GPIOA_PSOR
1613:F:\kalkulyator-workspace-v2\TeensyCore3\src\core_pins.h **** #define CORE_PIN27_PORTSET  GPIOA_PSOR
1614:F:\kalkulyator-workspace-v2\TeensyCore3\src\core_pins.h **** #define CORE_PIN28_PORTSET  GPIOA_PSOR
1615:F:\kalkulyator-workspace-v2\TeensyCore3\src\core_pins.h **** #define CORE_PIN29_PORTSET  GPIOB_PSOR
1616:F:\kalkulyator-workspace-v2\TeensyCore3\src\core_pins.h **** #define CORE_PIN30_PORTSET  GPIOB_PSOR
1617:F:\kalkulyator-workspace-v2\TeensyCore3\src\core_pins.h **** #define CORE_PIN31_PORTSET  GPIOB_PSOR
1618:F:\kalkulyator-workspace-v2\TeensyCore3\src\core_pins.h **** #define CORE_PIN32_PORTSET  GPIOB_PSOR
1619:F:\kalkulyator-workspace-v2\TeensyCore3\src\core_pins.h **** #define CORE_PIN33_PORTSET  GPIOE_PSOR
1620:F:\kalkulyator-workspace-v2\TeensyCore3\src\core_pins.h **** #define CORE_PIN34_PORTSET  GPIOE_PSOR
1621:F:\kalkulyator-workspace-v2\TeensyCore3\src\core_pins.h **** #define CORE_PIN35_PORTSET  GPIOC_PSOR
1622:F:\kalkulyator-workspace-v2\TeensyCore3\src\core_pins.h **** #define CORE_PIN36_PORTSET  GPIOC_PSOR
1623:F:\kalkulyator-workspace-v2\TeensyCore3\src\core_pins.h **** #define CORE_PIN37_PORTSET  GPIOC_PSOR
1624:F:\kalkulyator-workspace-v2\TeensyCore3\src\core_pins.h **** #define CORE_PIN38_PORTSET  GPIOC_PSOR
1625:F:\kalkulyator-workspace-v2\TeensyCore3\src\core_pins.h **** #define CORE_PIN39_PORTSET  GPIOA_PSOR
1626:F:\kalkulyator-workspace-v2\TeensyCore3\src\core_pins.h **** #define CORE_PIN40_PORTSET  GPIOA_PSOR
1627:F:\kalkulyator-workspace-v2\TeensyCore3\src\core_pins.h **** #define CORE_PIN41_PORTSET  GPIOA_PSOR
1628:F:\kalkulyator-workspace-v2\TeensyCore3\src\core_pins.h **** #define CORE_PIN42_PORTSET  GPIOA_PSOR
1629:F:\kalkulyator-workspace-v2\TeensyCore3\src\core_pins.h **** #define CORE_PIN43_PORTSET  GPIOB_PSOR
1630:F:\kalkulyator-workspace-v2\TeensyCore3\src\core_pins.h **** #define CORE_PIN44_PORTSET  GPIOB_PSOR
1631:F:\kalkulyator-workspace-v2\TeensyCore3\src\core_pins.h **** #define CORE_PIN45_PORTSET  GPIOB_PSOR
1632:F:\kalkulyator-workspace-v2\TeensyCore3\src\core_pins.h **** #define CORE_PIN46_PORTSET  GPIOB_PSOR
1633:F:\kalkulyator-workspace-v2\TeensyCore3\src\core_pins.h **** #define CORE_PIN47_PORTSET  GPIOD_PSOR
1634:F:\kalkulyator-workspace-v2\TeensyCore3\src\core_pins.h **** #define CORE_PIN48_PORTSET  GPIOD_PSOR
1635:F:\kalkulyator-workspace-v2\TeensyCore3\src\core_pins.h **** #define CORE_PIN49_PORTSET  GPIOB_PSOR
1636:F:\kalkulyator-workspace-v2\TeensyCore3\src\core_pins.h **** #define CORE_PIN50_PORTSET  GPIOB_PSOR
1637:F:\kalkulyator-workspace-v2\TeensyCore3\src\core_pins.h **** #define CORE_PIN51_PORTSET  GPIOD_PSOR
1638:F:\kalkulyator-workspace-v2\TeensyCore3\src\core_pins.h **** #define CORE_PIN52_PORTSET  GPIOD_PSOR
1639:F:\kalkulyator-workspace-v2\TeensyCore3\src\core_pins.h **** #define CORE_PIN53_PORTSET  GPIOD_PSOR
1640:F:\kalkulyator-workspace-v2\TeensyCore3\src\core_pins.h **** #define CORE_PIN54_PORTSET  GPIOD_PSOR
1641:F:\kalkulyator-workspace-v2\TeensyCore3\src\core_pins.h **** #define CORE_PIN55_PORTSET  GPIOD_PSOR
1642:F:\kalkulyator-workspace-v2\TeensyCore3\src\core_pins.h **** #define CORE_PIN56_PORTSET  GPIOE_PSOR
1643:F:\kalkulyator-workspace-v2\TeensyCore3\src\core_pins.h **** #define CORE_PIN57_PORTSET  GPIOE_PSOR
1644:F:\kalkulyator-workspace-v2\TeensyCore3\src\core_pins.h **** #define CORE_PIN58_PORTSET  GPIOE_PSOR
1645:F:\kalkulyator-workspace-v2\TeensyCore3\src\core_pins.h **** #define CORE_PIN59_PORTSET  GPIOE_PSOR
1646:F:\kalkulyator-workspace-v2\TeensyCore3\src\core_pins.h **** #define CORE_PIN60_PORTSET  GPIOE_PSOR
1647:F:\kalkulyator-workspace-v2\TeensyCore3\src\core_pins.h **** #define CORE_PIN61_PORTSET  GPIOE_PSOR
1648:F:\kalkulyator-workspace-v2\TeensyCore3\src\core_pins.h **** #define CORE_PIN62_PORTSET  GPIOE_PSOR
1649:F:\kalkulyator-workspace-v2\TeensyCore3\src\core_pins.h **** #define CORE_PIN63_PORTSET  GPIOE_PSOR
1650:F:\kalkulyator-workspace-v2\TeensyCore3\src\core_pins.h **** 
1651:F:\kalkulyator-workspace-v2\TeensyCore3\src\core_pins.h **** #define CORE_PIN0_PORTCLEAR GPIOE_PCOR
1652:F:\kalkulyator-workspace-v2\TeensyCore3\src\core_pins.h **** #define CORE_PIN1_PORTCLEAR GPIOB_PCOR
1653:F:\kalkulyator-workspace-v2\TeensyCore3\src\core_pins.h **** #define CORE_PIN2_PORTCLEAR GPIOD_PCOR
1654:F:\kalkulyator-workspace-v2\TeensyCore3\src\core_pins.h **** #define CORE_PIN3_PORTCLEAR GPIOA_PCOR
1655:F:\kalkulyator-workspace-v2\TeensyCore3\src\core_pins.h **** #define CORE_PIN4_PORTCLEAR GPIOA_PCOR
1656:F:\kalkulyator-workspace-v2\TeensyCore3\src\core_pins.h **** #define CORE_PIN5_PORTCLEAR GPIOD_PCOR
1657:F:\kalkulyator-workspace-v2\TeensyCore3\src\core_pins.h **** #define CORE_PIN6_PORTCLEAR GPIOD_PCOR
1658:F:\kalkulyator-workspace-v2\TeensyCore3\src\core_pins.h **** #define CORE_PIN7_PORTCLEAR GPIOD_PCOR
1659:F:\kalkulyator-workspace-v2\TeensyCore3\src\core_pins.h **** #define CORE_PIN8_PORTCLEAR GPIOD_PCOR
1660:F:\kalkulyator-workspace-v2\TeensyCore3\src\core_pins.h **** #define CORE_PIN9_PORTCLEAR GPIOC_PCOR
1661:F:\kalkulyator-workspace-v2\TeensyCore3\src\core_pins.h **** #define CORE_PIN10_PORTCLEAR    GPIOC_PCOR
1662:F:\kalkulyator-workspace-v2\TeensyCore3\src\core_pins.h **** #define CORE_PIN11_PORTCLEAR    GPIOC_PCOR
1663:F:\kalkulyator-workspace-v2\TeensyCore3\src\core_pins.h **** #define CORE_PIN12_PORTCLEAR    GPIOC_PCOR
1664:F:\kalkulyator-workspace-v2\TeensyCore3\src\core_pins.h **** #define CORE_PIN13_PORTCLEAR    GPIOC_PCOR
1665:F:\kalkulyator-workspace-v2\TeensyCore3\src\core_pins.h **** #define CORE_PIN14_PORTCLEAR    GPIOD_PCOR
1666:F:\kalkulyator-workspace-v2\TeensyCore3\src\core_pins.h **** #define CORE_PIN15_PORTCLEAR    GPIOC_PCOR
1667:F:\kalkulyator-workspace-v2\TeensyCore3\src\core_pins.h **** #define CORE_PIN16_PORTCLEAR    GPIOB_PCOR
1668:F:\kalkulyator-workspace-v2\TeensyCore3\src\core_pins.h **** #define CORE_PIN17_PORTCLEAR    GPIOB_PCOR
1669:F:\kalkulyator-workspace-v2\TeensyCore3\src\core_pins.h **** #define CORE_PIN18_PORTCLEAR    GPIOB_PCOR
1670:F:\kalkulyator-workspace-v2\TeensyCore3\src\core_pins.h **** #define CORE_PIN19_PORTCLEAR    GPIOB_PCOR
1671:F:\kalkulyator-workspace-v2\TeensyCore3\src\core_pins.h **** #define CORE_PIN20_PORTCLEAR    GPIOD_PCOR
1672:F:\kalkulyator-workspace-v2\TeensyCore3\src\core_pins.h **** #define CORE_PIN21_PORTCLEAR    GPIOD_PCOR
1673:F:\kalkulyator-workspace-v2\TeensyCore3\src\core_pins.h **** #define CORE_PIN22_PORTCLEAR    GPIOC_PCOR
1674:F:\kalkulyator-workspace-v2\TeensyCore3\src\core_pins.h **** #define CORE_PIN23_PORTCLEAR    GPIOC_PCOR
1675:F:\kalkulyator-workspace-v2\TeensyCore3\src\core_pins.h **** #define CORE_PIN24_PORTCLEAR    GPIOE_PCOR
1676:F:\kalkulyator-workspace-v2\TeensyCore3\src\core_pins.h **** #define CORE_PIN25_PORTCLEAR    GPIOA_PCOR
1677:F:\kalkulyator-workspace-v2\TeensyCore3\src\core_pins.h **** #define CORE_PIN26_PORTCLEAR    GPIOA_PCOR
1678:F:\kalkulyator-workspace-v2\TeensyCore3\src\core_pins.h **** #define CORE_PIN27_PORTCLEAR    GPIOA_PCOR
1679:F:\kalkulyator-workspace-v2\TeensyCore3\src\core_pins.h **** #define CORE_PIN28_PORTCLEAR    GPIOA_PCOR
1680:F:\kalkulyator-workspace-v2\TeensyCore3\src\core_pins.h **** #define CORE_PIN29_PORTCLEAR    GPIOB_PCOR
1681:F:\kalkulyator-workspace-v2\TeensyCore3\src\core_pins.h **** #define CORE_PIN30_PORTCLEAR    GPIOB_PCOR
1682:F:\kalkulyator-workspace-v2\TeensyCore3\src\core_pins.h **** #define CORE_PIN31_PORTCLEAR    GPIOB_PCOR
1683:F:\kalkulyator-workspace-v2\TeensyCore3\src\core_pins.h **** #define CORE_PIN32_PORTCLEAR    GPIOB_PCOR
1684:F:\kalkulyator-workspace-v2\TeensyCore3\src\core_pins.h **** #define CORE_PIN33_PORTCLEAR    GPIOE_PCOR
1685:F:\kalkulyator-workspace-v2\TeensyCore3\src\core_pins.h **** #define CORE_PIN34_PORTCLEAR    GPIOE_PCOR
1686:F:\kalkulyator-workspace-v2\TeensyCore3\src\core_pins.h **** #define CORE_PIN35_PORTCLEAR    GPIOC_PCOR
1687:F:\kalkulyator-workspace-v2\TeensyCore3\src\core_pins.h **** #define CORE_PIN36_PORTCLEAR    GPIOC_PCOR
1688:F:\kalkulyator-workspace-v2\TeensyCore3\src\core_pins.h **** #define CORE_PIN37_PORTCLEAR    GPIOC_PCOR
1689:F:\kalkulyator-workspace-v2\TeensyCore3\src\core_pins.h **** #define CORE_PIN38_PORTCLEAR    GPIOC_PCOR
1690:F:\kalkulyator-workspace-v2\TeensyCore3\src\core_pins.h **** #define CORE_PIN39_PORTCLEAR    GPIOA_PCOR
1691:F:\kalkulyator-workspace-v2\TeensyCore3\src\core_pins.h **** #define CORE_PIN40_PORTCLEAR    GPIOA_PCOR
1692:F:\kalkulyator-workspace-v2\TeensyCore3\src\core_pins.h **** #define CORE_PIN41_PORTCLEAR    GPIOA_PCOR
1693:F:\kalkulyator-workspace-v2\TeensyCore3\src\core_pins.h **** #define CORE_PIN42_PORTCLEAR    GPIOA_PCOR
1694:F:\kalkulyator-workspace-v2\TeensyCore3\src\core_pins.h **** #define CORE_PIN43_PORTCLEAR    GPIOB_PCOR
1695:F:\kalkulyator-workspace-v2\TeensyCore3\src\core_pins.h **** #define CORE_PIN44_PORTCLEAR    GPIOB_PCOR
1696:F:\kalkulyator-workspace-v2\TeensyCore3\src\core_pins.h **** #define CORE_PIN45_PORTCLEAR    GPIOB_PCOR
1697:F:\kalkulyator-workspace-v2\TeensyCore3\src\core_pins.h **** #define CORE_PIN46_PORTCLEAR    GPIOB_PCOR
1698:F:\kalkulyator-workspace-v2\TeensyCore3\src\core_pins.h **** #define CORE_PIN47_PORTCLEAR    GPIOD_PCOR
1699:F:\kalkulyator-workspace-v2\TeensyCore3\src\core_pins.h **** #define CORE_PIN48_PORTCLEAR    GPIOD_PCOR
1700:F:\kalkulyator-workspace-v2\TeensyCore3\src\core_pins.h **** #define CORE_PIN49_PORTCLEAR    GPIOB_PCOR
1701:F:\kalkulyator-workspace-v2\TeensyCore3\src\core_pins.h **** #define CORE_PIN50_PORTCLEAR    GPIOB_PCOR
1702:F:\kalkulyator-workspace-v2\TeensyCore3\src\core_pins.h **** #define CORE_PIN51_PORTCLEAR    GPIOD_PCOR
1703:F:\kalkulyator-workspace-v2\TeensyCore3\src\core_pins.h **** #define CORE_PIN52_PORTCLEAR    GPIOD_PCOR
1704:F:\kalkulyator-workspace-v2\TeensyCore3\src\core_pins.h **** #define CORE_PIN53_PORTCLEAR    GPIOD_PCOR
1705:F:\kalkulyator-workspace-v2\TeensyCore3\src\core_pins.h **** #define CORE_PIN54_PORTCLEAR    GPIOD_PCOR
1706:F:\kalkulyator-workspace-v2\TeensyCore3\src\core_pins.h **** #define CORE_PIN55_PORTCLEAR    GPIOD_PCOR
1707:F:\kalkulyator-workspace-v2\TeensyCore3\src\core_pins.h **** #define CORE_PIN56_PORTCLEAR    GPIOE_PCOR
1708:F:\kalkulyator-workspace-v2\TeensyCore3\src\core_pins.h **** #define CORE_PIN57_PORTCLEAR    GPIOE_PCOR
1709:F:\kalkulyator-workspace-v2\TeensyCore3\src\core_pins.h **** #define CORE_PIN58_PORTCLEAR    GPIOE_PCOR
1710:F:\kalkulyator-workspace-v2\TeensyCore3\src\core_pins.h **** #define CORE_PIN59_PORTCLEAR    GPIOE_PCOR
1711:F:\kalkulyator-workspace-v2\TeensyCore3\src\core_pins.h **** #define CORE_PIN60_PORTCLEAR    GPIOE_PCOR
1712:F:\kalkulyator-workspace-v2\TeensyCore3\src\core_pins.h **** #define CORE_PIN61_PORTCLEAR    GPIOE_PCOR
1713:F:\kalkulyator-workspace-v2\TeensyCore3\src\core_pins.h **** #define CORE_PIN62_PORTCLEAR    GPIOE_PCOR
1714:F:\kalkulyator-workspace-v2\TeensyCore3\src\core_pins.h **** #define CORE_PIN63_PORTCLEAR    GPIOE_PCOR
1715:F:\kalkulyator-workspace-v2\TeensyCore3\src\core_pins.h **** 
1716:F:\kalkulyator-workspace-v2\TeensyCore3\src\core_pins.h **** #define CORE_PIN0_DDRREG    GPIOE_PDDR
1717:F:\kalkulyator-workspace-v2\TeensyCore3\src\core_pins.h **** #define CORE_PIN1_DDRREG    GPIOB_PDDR
1718:F:\kalkulyator-workspace-v2\TeensyCore3\src\core_pins.h **** #define CORE_PIN2_DDRREG    GPIOD_PDDR
1719:F:\kalkulyator-workspace-v2\TeensyCore3\src\core_pins.h **** #define CORE_PIN3_DDRREG    GPIOA_PDDR
1720:F:\kalkulyator-workspace-v2\TeensyCore3\src\core_pins.h **** #define CORE_PIN4_DDRREG    GPIOA_PDDR
1721:F:\kalkulyator-workspace-v2\TeensyCore3\src\core_pins.h **** #define CORE_PIN5_DDRREG    GPIOD_PDDR
1722:F:\kalkulyator-workspace-v2\TeensyCore3\src\core_pins.h **** #define CORE_PIN6_DDRREG    GPIOD_PDDR
1723:F:\kalkulyator-workspace-v2\TeensyCore3\src\core_pins.h **** #define CORE_PIN7_DDRREG    GPIOD_PDDR
1724:F:\kalkulyator-workspace-v2\TeensyCore3\src\core_pins.h **** #define CORE_PIN8_DDRREG    GPIOD_PDDR
1725:F:\kalkulyator-workspace-v2\TeensyCore3\src\core_pins.h **** #define CORE_PIN9_DDRREG    GPIOC_PDDR
1726:F:\kalkulyator-workspace-v2\TeensyCore3\src\core_pins.h **** #define CORE_PIN10_DDRREG   GPIOC_PDDR
1727:F:\kalkulyator-workspace-v2\TeensyCore3\src\core_pins.h **** #define CORE_PIN11_DDRREG   GPIOC_PDDR
1728:F:\kalkulyator-workspace-v2\TeensyCore3\src\core_pins.h **** #define CORE_PIN12_DDRREG   GPIOC_PDDR
1729:F:\kalkulyator-workspace-v2\TeensyCore3\src\core_pins.h **** #define CORE_PIN13_DDRREG   GPIOC_PDDR
1730:F:\kalkulyator-workspace-v2\TeensyCore3\src\core_pins.h **** #define CORE_PIN14_DDRREG   GPIOD_PDDR
1731:F:\kalkulyator-workspace-v2\TeensyCore3\src\core_pins.h **** #define CORE_PIN15_DDRREG   GPIOC_PDDR
1732:F:\kalkulyator-workspace-v2\TeensyCore3\src\core_pins.h **** #define CORE_PIN16_DDRREG   GPIOB_PDDR
1733:F:\kalkulyator-workspace-v2\TeensyCore3\src\core_pins.h **** #define CORE_PIN17_DDRREG   GPIOB_PDDR
1734:F:\kalkulyator-workspace-v2\TeensyCore3\src\core_pins.h **** #define CORE_PIN18_DDRREG   GPIOB_PDDR
1735:F:\kalkulyator-workspace-v2\TeensyCore3\src\core_pins.h **** #define CORE_PIN19_DDRREG   GPIOB_PDDR
1736:F:\kalkulyator-workspace-v2\TeensyCore3\src\core_pins.h **** #define CORE_PIN20_DDRREG   GPIOD_PDDR
1737:F:\kalkulyator-workspace-v2\TeensyCore3\src\core_pins.h **** #define CORE_PIN21_DDRREG   GPIOD_PDDR
1738:F:\kalkulyator-workspace-v2\TeensyCore3\src\core_pins.h **** #define CORE_PIN22_DDRREG   GPIOC_PDDR
1739:F:\kalkulyator-workspace-v2\TeensyCore3\src\core_pins.h **** #define CORE_PIN23_DDRREG   GPIOC_PDDR
1740:F:\kalkulyator-workspace-v2\TeensyCore3\src\core_pins.h **** #define CORE_PIN24_DDRREG   GPIOE_PDDR
1741:F:\kalkulyator-workspace-v2\TeensyCore3\src\core_pins.h **** #define CORE_PIN25_DDRREG   GPIOA_PDDR
1742:F:\kalkulyator-workspace-v2\TeensyCore3\src\core_pins.h **** #define CORE_PIN26_DDRREG   GPIOA_PDDR
1743:F:\kalkulyator-workspace-v2\TeensyCore3\src\core_pins.h **** #define CORE_PIN27_DDRREG   GPIOA_PDDR
1744:F:\kalkulyator-workspace-v2\TeensyCore3\src\core_pins.h **** #define CORE_PIN28_DDRREG   GPIOA_PDDR
1745:F:\kalkulyator-workspace-v2\TeensyCore3\src\core_pins.h **** #define CORE_PIN29_DDRREG   GPIOB_PDDR
1746:F:\kalkulyator-workspace-v2\TeensyCore3\src\core_pins.h **** #define CORE_PIN30_DDRREG   GPIOB_PDDR
1747:F:\kalkulyator-workspace-v2\TeensyCore3\src\core_pins.h **** #define CORE_PIN31_DDRREG   GPIOB_PDDR
1748:F:\kalkulyator-workspace-v2\TeensyCore3\src\core_pins.h **** #define CORE_PIN32_DDRREG   GPIOB_PDDR
1749:F:\kalkulyator-workspace-v2\TeensyCore3\src\core_pins.h **** #define CORE_PIN33_DDRREG   GPIOE_PDDR
1750:F:\kalkulyator-workspace-v2\TeensyCore3\src\core_pins.h **** #define CORE_PIN34_DDRREG   GPIOE_PDDR
1751:F:\kalkulyator-workspace-v2\TeensyCore3\src\core_pins.h **** #define CORE_PIN35_DDRREG   GPIOC_PDDR
1752:F:\kalkulyator-workspace-v2\TeensyCore3\src\core_pins.h **** #define CORE_PIN36_DDRREG   GPIOC_PDDR
1753:F:\kalkulyator-workspace-v2\TeensyCore3\src\core_pins.h **** #define CORE_PIN37_DDRREG   GPIOC_PDDR
1754:F:\kalkulyator-workspace-v2\TeensyCore3\src\core_pins.h **** #define CORE_PIN38_DDRREG   GPIOC_PDDR
1755:F:\kalkulyator-workspace-v2\TeensyCore3\src\core_pins.h **** #define CORE_PIN39_DDRREG   GPIOA_PDDR
1756:F:\kalkulyator-workspace-v2\TeensyCore3\src\core_pins.h **** #define CORE_PIN40_DDRREG   GPIOA_PDDR
1757:F:\kalkulyator-workspace-v2\TeensyCore3\src\core_pins.h **** #define CORE_PIN41_DDRREG   GPIOA_PDDR
1758:F:\kalkulyator-workspace-v2\TeensyCore3\src\core_pins.h **** #define CORE_PIN42_DDRREG   GPIOA_PDDR
1759:F:\kalkulyator-workspace-v2\TeensyCore3\src\core_pins.h **** #define CORE_PIN43_DDRREG   GPIOB_PDDR
1760:F:\kalkulyator-workspace-v2\TeensyCore3\src\core_pins.h **** #define CORE_PIN44_DDRREG   GPIOB_PDDR
1761:F:\kalkulyator-workspace-v2\TeensyCore3\src\core_pins.h **** #define CORE_PIN45_DDRREG   GPIOB_PDDR
1762:F:\kalkulyator-workspace-v2\TeensyCore3\src\core_pins.h **** #define CORE_PIN46_DDRREG   GPIOB_PDDR
1763:F:\kalkulyator-workspace-v2\TeensyCore3\src\core_pins.h **** #define CORE_PIN47_DDRREG   GPIOD_PDDR
1764:F:\kalkulyator-workspace-v2\TeensyCore3\src\core_pins.h **** #define CORE_PIN48_DDRREG   GPIOD_PDDR
1765:F:\kalkulyator-workspace-v2\TeensyCore3\src\core_pins.h **** #define CORE_PIN49_DDRREG   GPIOB_PDDR
1766:F:\kalkulyator-workspace-v2\TeensyCore3\src\core_pins.h **** #define CORE_PIN50_DDRREG   GPIOB_PDDR
1767:F:\kalkulyator-workspace-v2\TeensyCore3\src\core_pins.h **** #define CORE_PIN51_DDRREG   GPIOD_PDDR
1768:F:\kalkulyator-workspace-v2\TeensyCore3\src\core_pins.h **** #define CORE_PIN52_DDRREG   GPIOD_PDDR
1769:F:\kalkulyator-workspace-v2\TeensyCore3\src\core_pins.h **** #define CORE_PIN53_DDRREG   GPIOD_PDDR
1770:F:\kalkulyator-workspace-v2\TeensyCore3\src\core_pins.h **** #define CORE_PIN54_DDRREG   GPIOD_PDDR
1771:F:\kalkulyator-workspace-v2\TeensyCore3\src\core_pins.h **** #define CORE_PIN55_DDRREG   GPIOD_PDDR
1772:F:\kalkulyator-workspace-v2\TeensyCore3\src\core_pins.h **** #define CORE_PIN56_DDRREG   GPIOE_PDDR
1773:F:\kalkulyator-workspace-v2\TeensyCore3\src\core_pins.h **** #define CORE_PIN57_DDRREG   GPIOE_PDDR
1774:F:\kalkulyator-workspace-v2\TeensyCore3\src\core_pins.h **** #define CORE_PIN58_DDRREG   GPIOE_PDDR
1775:F:\kalkulyator-workspace-v2\TeensyCore3\src\core_pins.h **** #define CORE_PIN59_DDRREG   GPIOE_PDDR
1776:F:\kalkulyator-workspace-v2\TeensyCore3\src\core_pins.h **** #define CORE_PIN60_DDRREG   GPIOE_PDDR
1777:F:\kalkulyator-workspace-v2\TeensyCore3\src\core_pins.h **** #define CORE_PIN61_DDRREG   GPIOE_PDDR
1778:F:\kalkulyator-workspace-v2\TeensyCore3\src\core_pins.h **** #define CORE_PIN62_DDRREG   GPIOE_PDDR
1779:F:\kalkulyator-workspace-v2\TeensyCore3\src\core_pins.h **** #define CORE_PIN63_DDRREG   GPIOE_PDDR
1780:F:\kalkulyator-workspace-v2\TeensyCore3\src\core_pins.h **** 
1781:F:\kalkulyator-workspace-v2\TeensyCore3\src\core_pins.h **** #define CORE_PIN0_PINREG    GPIOE_PDIR
1782:F:\kalkulyator-workspace-v2\TeensyCore3\src\core_pins.h **** #define CORE_PIN1_PINREG    GPIOB_PDIR
1783:F:\kalkulyator-workspace-v2\TeensyCore3\src\core_pins.h **** #define CORE_PIN2_PINREG    GPIOD_PDIR
1784:F:\kalkulyator-workspace-v2\TeensyCore3\src\core_pins.h **** #define CORE_PIN3_PINREG    GPIOA_PDIR
1785:F:\kalkulyator-workspace-v2\TeensyCore3\src\core_pins.h **** #define CORE_PIN4_PINREG    GPIOA_PDIR
1786:F:\kalkulyator-workspace-v2\TeensyCore3\src\core_pins.h **** #define CORE_PIN5_PINREG    GPIOD_PDIR
1787:F:\kalkulyator-workspace-v2\TeensyCore3\src\core_pins.h **** #define CORE_PIN6_PINREG    GPIOD_PDIR
1788:F:\kalkulyator-workspace-v2\TeensyCore3\src\core_pins.h **** #define CORE_PIN7_PINREG    GPIOD_PDIR
1789:F:\kalkulyator-workspace-v2\TeensyCore3\src\core_pins.h **** #define CORE_PIN8_PINREG    GPIOD_PDIR
1790:F:\kalkulyator-workspace-v2\TeensyCore3\src\core_pins.h **** #define CORE_PIN9_PINREG    GPIOC_PDIR
1791:F:\kalkulyator-workspace-v2\TeensyCore3\src\core_pins.h **** #define CORE_PIN10_PINREG   GPIOC_PDIR
1792:F:\kalkulyator-workspace-v2\TeensyCore3\src\core_pins.h **** #define CORE_PIN11_PINREG   GPIOC_PDIR
1793:F:\kalkulyator-workspace-v2\TeensyCore3\src\core_pins.h **** #define CORE_PIN12_PINREG   GPIOC_PDIR
1794:F:\kalkulyator-workspace-v2\TeensyCore3\src\core_pins.h **** #define CORE_PIN13_PINREG   GPIOC_PDIR
1795:F:\kalkulyator-workspace-v2\TeensyCore3\src\core_pins.h **** #define CORE_PIN14_PINREG   GPIOD_PDIR
1796:F:\kalkulyator-workspace-v2\TeensyCore3\src\core_pins.h **** #define CORE_PIN15_PINREG   GPIOC_PDIR
1797:F:\kalkulyator-workspace-v2\TeensyCore3\src\core_pins.h **** #define CORE_PIN16_PINREG   GPIOB_PDIR
1798:F:\kalkulyator-workspace-v2\TeensyCore3\src\core_pins.h **** #define CORE_PIN17_PINREG   GPIOB_PDIR
1799:F:\kalkulyator-workspace-v2\TeensyCore3\src\core_pins.h **** #define CORE_PIN18_PINREG   GPIOB_PDIR
1800:F:\kalkulyator-workspace-v2\TeensyCore3\src\core_pins.h **** #define CORE_PIN19_PINREG   GPIOB_PDIR
1801:F:\kalkulyator-workspace-v2\TeensyCore3\src\core_pins.h **** #define CORE_PIN20_PINREG   GPIOD_PDIR
1802:F:\kalkulyator-workspace-v2\TeensyCore3\src\core_pins.h **** #define CORE_PIN21_PINREG   GPIOD_PDIR
1803:F:\kalkulyator-workspace-v2\TeensyCore3\src\core_pins.h **** #define CORE_PIN22_PINREG   GPIOC_PDIR
1804:F:\kalkulyator-workspace-v2\TeensyCore3\src\core_pins.h **** #define CORE_PIN23_PINREG   GPIOC_PDIR
1805:F:\kalkulyator-workspace-v2\TeensyCore3\src\core_pins.h **** #define CORE_PIN24_PINREG   GPIOE_PDIR
1806:F:\kalkulyator-workspace-v2\TeensyCore3\src\core_pins.h **** #define CORE_PIN25_PINREG   GPIOA_PDIR
1807:F:\kalkulyator-workspace-v2\TeensyCore3\src\core_pins.h **** #define CORE_PIN26_PINREG   GPIOA_PDIR
1808:F:\kalkulyator-workspace-v2\TeensyCore3\src\core_pins.h **** #define CORE_PIN27_PINREG   GPIOA_PDIR
1809:F:\kalkulyator-workspace-v2\TeensyCore3\src\core_pins.h **** #define CORE_PIN28_PINREG   GPIOA_PDIR
1810:F:\kalkulyator-workspace-v2\TeensyCore3\src\core_pins.h **** #define CORE_PIN29_PINREG   GPIOB_PDIR
1811:F:\kalkulyator-workspace-v2\TeensyCore3\src\core_pins.h **** #define CORE_PIN30_PINREG   GPIOB_PDIR
1812:F:\kalkulyator-workspace-v2\TeensyCore3\src\core_pins.h **** #define CORE_PIN31_PINREG   GPIOB_PDIR
1813:F:\kalkulyator-workspace-v2\TeensyCore3\src\core_pins.h **** #define CORE_PIN32_PINREG   GPIOB_PDIR
1814:F:\kalkulyator-workspace-v2\TeensyCore3\src\core_pins.h **** #define CORE_PIN33_PINREG   GPIOE_PDIR
1815:F:\kalkulyator-workspace-v2\TeensyCore3\src\core_pins.h **** #define CORE_PIN34_PINREG   GPIOE_PDIR
1816:F:\kalkulyator-workspace-v2\TeensyCore3\src\core_pins.h **** #define CORE_PIN35_PINREG   GPIOC_PDIR
1817:F:\kalkulyator-workspace-v2\TeensyCore3\src\core_pins.h **** #define CORE_PIN36_PINREG   GPIOC_PDIR
1818:F:\kalkulyator-workspace-v2\TeensyCore3\src\core_pins.h **** #define CORE_PIN37_PINREG   GPIOC_PDIR
1819:F:\kalkulyator-workspace-v2\TeensyCore3\src\core_pins.h **** #define CORE_PIN38_PINREG   GPIOC_PDIR
1820:F:\kalkulyator-workspace-v2\TeensyCore3\src\core_pins.h **** #define CORE_PIN39_PINREG   GPIOA_PDIR
1821:F:\kalkulyator-workspace-v2\TeensyCore3\src\core_pins.h **** #define CORE_PIN40_PINREG   GPIOA_PDIR
1822:F:\kalkulyator-workspace-v2\TeensyCore3\src\core_pins.h **** #define CORE_PIN41_PINREG   GPIOA_PDIR
1823:F:\kalkulyator-workspace-v2\TeensyCore3\src\core_pins.h **** #define CORE_PIN42_PINREG   GPIOA_PDIR
1824:F:\kalkulyator-workspace-v2\TeensyCore3\src\core_pins.h **** #define CORE_PIN43_PINREG   GPIOB_PDIR
1825:F:\kalkulyator-workspace-v2\TeensyCore3\src\core_pins.h **** #define CORE_PIN44_PINREG   GPIOB_PDIR
1826:F:\kalkulyator-workspace-v2\TeensyCore3\src\core_pins.h **** #define CORE_PIN45_PINREG   GPIOB_PDIR
1827:F:\kalkulyator-workspace-v2\TeensyCore3\src\core_pins.h **** #define CORE_PIN46_PINREG   GPIOB_PDIR
1828:F:\kalkulyator-workspace-v2\TeensyCore3\src\core_pins.h **** #define CORE_PIN47_PINREG   GPIOD_PDIR
1829:F:\kalkulyator-workspace-v2\TeensyCore3\src\core_pins.h **** #define CORE_PIN48_PINREG   GPIOD_PDIR
1830:F:\kalkulyator-workspace-v2\TeensyCore3\src\core_pins.h **** #define CORE_PIN49_PINREG   GPIOB_PDIR
1831:F:\kalkulyator-workspace-v2\TeensyCore3\src\core_pins.h **** #define CORE_PIN50_PINREG   GPIOB_PDIR
1832:F:\kalkulyator-workspace-v2\TeensyCore3\src\core_pins.h **** #define CORE_PIN51_PINREG   GPIOD_PDIR
1833:F:\kalkulyator-workspace-v2\TeensyCore3\src\core_pins.h **** #define CORE_PIN52_PINREG   GPIOD_PDIR
1834:F:\kalkulyator-workspace-v2\TeensyCore3\src\core_pins.h **** #define CORE_PIN53_PINREG   GPIOD_PDIR
1835:F:\kalkulyator-workspace-v2\TeensyCore3\src\core_pins.h **** #define CORE_PIN54_PINREG   GPIOD_PDIR
1836:F:\kalkulyator-workspace-v2\TeensyCore3\src\core_pins.h **** #define CORE_PIN55_PINREG   GPIOD_PDIR
1837:F:\kalkulyator-workspace-v2\TeensyCore3\src\core_pins.h **** #define CORE_PIN56_PINREG   GPIOE_PDIR
1838:F:\kalkulyator-workspace-v2\TeensyCore3\src\core_pins.h **** #define CORE_PIN57_PINREG   GPIOE_PDIR
1839:F:\kalkulyator-workspace-v2\TeensyCore3\src\core_pins.h **** #define CORE_PIN58_PINREG   GPIOE_PDIR
1840:F:\kalkulyator-workspace-v2\TeensyCore3\src\core_pins.h **** #define CORE_PIN59_PINREG   GPIOE_PDIR
1841:F:\kalkulyator-workspace-v2\TeensyCore3\src\core_pins.h **** #define CORE_PIN60_PINREG   GPIOE_PDIR
1842:F:\kalkulyator-workspace-v2\TeensyCore3\src\core_pins.h **** #define CORE_PIN61_PINREG   GPIOE_PDIR
1843:F:\kalkulyator-workspace-v2\TeensyCore3\src\core_pins.h **** #define CORE_PIN62_PINREG   GPIOE_PDIR
1844:F:\kalkulyator-workspace-v2\TeensyCore3\src\core_pins.h **** #define CORE_PIN63_PINREG   GPIOE_PDIR
1845:F:\kalkulyator-workspace-v2\TeensyCore3\src\core_pins.h **** 
1846:F:\kalkulyator-workspace-v2\TeensyCore3\src\core_pins.h **** #define CORE_PIN0_CONFIG    PORTE_PCR26
1847:F:\kalkulyator-workspace-v2\TeensyCore3\src\core_pins.h **** #define CORE_PIN1_CONFIG    PORTB_PCR17
1848:F:\kalkulyator-workspace-v2\TeensyCore3\src\core_pins.h **** #define CORE_PIN2_CONFIG    PORTD_PCR0
1849:F:\kalkulyator-workspace-v2\TeensyCore3\src\core_pins.h **** #define CORE_PIN3_CONFIG    PORTA_PCR12
1850:F:\kalkulyator-workspace-v2\TeensyCore3\src\core_pins.h **** #define CORE_PIN4_CONFIG    PORTA_PCR13
1851:F:\kalkulyator-workspace-v2\TeensyCore3\src\core_pins.h **** #define CORE_PIN5_CONFIG    PORTD_PCR7
1852:F:\kalkulyator-workspace-v2\TeensyCore3\src\core_pins.h **** #define CORE_PIN6_CONFIG    PORTD_PCR4
1853:F:\kalkulyator-workspace-v2\TeensyCore3\src\core_pins.h **** #define CORE_PIN7_CONFIG    PORTD_PCR2
1854:F:\kalkulyator-workspace-v2\TeensyCore3\src\core_pins.h **** #define CORE_PIN8_CONFIG    PORTD_PCR3
1855:F:\kalkulyator-workspace-v2\TeensyCore3\src\core_pins.h **** #define CORE_PIN9_CONFIG    PORTC_PCR3
1856:F:\kalkulyator-workspace-v2\TeensyCore3\src\core_pins.h **** #define CORE_PIN10_CONFIG   PORTC_PCR4
1857:F:\kalkulyator-workspace-v2\TeensyCore3\src\core_pins.h **** #define CORE_PIN11_CONFIG   PORTC_PCR6
1858:F:\kalkulyator-workspace-v2\TeensyCore3\src\core_pins.h **** #define CORE_PIN12_CONFIG   PORTC_PCR7
1859:F:\kalkulyator-workspace-v2\TeensyCore3\src\core_pins.h **** #define CORE_PIN13_CONFIG   PORTC_PCR5
1860:F:\kalkulyator-workspace-v2\TeensyCore3\src\core_pins.h **** #define CORE_PIN14_CONFIG   PORTD_PCR1
1861:F:\kalkulyator-workspace-v2\TeensyCore3\src\core_pins.h **** #define CORE_PIN15_CONFIG   PORTC_PCR0
1862:F:\kalkulyator-workspace-v2\TeensyCore3\src\core_pins.h **** #define CORE_PIN16_CONFIG   PORTB_PCR0
1863:F:\kalkulyator-workspace-v2\TeensyCore3\src\core_pins.h **** #define CORE_PIN17_CONFIG   PORTB_PCR1
