   1              		.syntax unified
   2              		.cpu cortex-m4
   3              		.fpu softvfp
   4              		.eabi_attribute 20, 1
   5              		.eabi_attribute 21, 1
   6              		.eabi_attribute 23, 3
   7              		.eabi_attribute 24, 1
   8              		.eabi_attribute 25, 1
   9              		.eabi_attribute 26, 1
  10              		.eabi_attribute 30, 2
  11              		.eabi_attribute 34, 1
  12              		.eabi_attribute 18, 4
  13              		.thumb
  14              		.syntax unified
  15              		.file	"System.cpp"
  16              		.text
  17              	.Ltext0:
  18              		.cfi_sections	.debug_frame
  19              		.section	.text._ZN5forth6System8instanceEv,"ax",%progbits
  20              		.align	2
  21              		.global	_ZN5forth6System8instanceEv
  22              		.thumb
  23              		.thumb_func
  25              	_ZN5forth6System8instanceEv:
  26              		.fnstart
  27              	.LFB25:
  28              		.file 1 "../src/System.cpp"
   1:../src/System.cpp **** /*
   2:../src/System.cpp ****  * System.cpp
   3:../src/System.cpp ****  *
   4:../src/System.cpp ****  *  Created on: Oct 30, 2016
   5:../src/System.cpp ****  *      Author: Robert
   6:../src/System.cpp ****  */
   7:../src/System.cpp **** 
   8:../src/System.cpp **** #include <System.h>
   9:../src/System.cpp **** 
  10:../src/System.cpp **** namespace forth {
  11:../src/System.cpp **** 
  12:../src/System.cpp **** DataStack& System::stack_(DataStack::instance());
  13:../src/System.cpp **** 
  14:../src/System.cpp **** System& System::instance() {
  29              		.loc 1 14 0
  30              		.cfi_startproc
  31              		.cfi_personality 0,__gxx_personality_v0
  32              		.cfi_lsda 0,.LLSDA25
  33              		@ args = 0, pretend = 0, frame = 0
  34              		@ frame_needed = 0, uses_anonymous_args = 0
  15:../src/System.cpp ****   static System instance;
  35              		.loc 1 15 0
  36 0000 0C48     		ldr	r0, .L14
  14:../src/System.cpp ****   static System instance;
  37              		.loc 1 14 0
  38 0002 08B5     		push	{r3, lr}
  39              		.save {r3, lr}
  40              		.cfi_def_cfa_offset 8
  41              		.cfi_offset 3, -8
  42              		.cfi_offset 14, -4
  43              		.loc 1 15 0
  44 0004 0368     		ldr	r3, [r0]
  45 0006 DB07     		lsls	r3, r3, #31
  46 0008 01D5     		bpl	.L13
  47              	.L9:
  16:../src/System.cpp ****   return instance;
  17:../src/System.cpp **** }
  48              		.loc 1 17 0
  49 000a 0B48     		ldr	r0, .L14+4
  50 000c 08BD     		pop	{r3, pc}
  51              	.L13:
  15:../src/System.cpp ****   return instance;
  52              		.loc 1 15 0 discriminator 1
  53 000e FFF7FEFF 		bl	__cxa_guard_acquire
  54              	.LVL0:
  55 0012 0028     		cmp	r0, #0
  56 0014 F9D0     		beq	.L9
  57              	.LVL1:
  58              	.LEHB0:
  59              	.LBB23:
  60              	.LBB24:
  61              		.file 2 "F:\\kalkulyator-workspace-v2\\PixieForth\\src/System.h"
   1:F:\kalkulyator-workspace-v2\PixieForth\src\System.h **** /*
   2:F:\kalkulyator-workspace-v2\PixieForth\src\System.h ****  * System.h
   3:F:\kalkulyator-workspace-v2\PixieForth\src\System.h ****  *
   4:F:\kalkulyator-workspace-v2\PixieForth\src\System.h ****  *  Created on: Oct 30, 2016
   5:F:\kalkulyator-workspace-v2\PixieForth\src\System.h ****  *      Author: Robert
   6:F:\kalkulyator-workspace-v2\PixieForth\src\System.h ****  */
   7:F:\kalkulyator-workspace-v2\PixieForth\src\System.h **** 
   8:F:\kalkulyator-workspace-v2\PixieForth\src\System.h **** #ifndef SRC_SYSTEM_H_
   9:F:\kalkulyator-workspace-v2\PixieForth\src\System.h **** #define SRC_SYSTEM_H_
  10:F:\kalkulyator-workspace-v2\PixieForth\src\System.h **** 
  11:F:\kalkulyator-workspace-v2\PixieForth\src\System.h **** #include <PicturedNumericArea.h>
  12:F:\kalkulyator-workspace-v2\PixieForth\src\System.h **** #include <DataStack.h>
  13:F:\kalkulyator-workspace-v2\PixieForth\src\System.h **** 
  14:F:\kalkulyator-workspace-v2\PixieForth\src\System.h **** namespace forth {
  15:F:\kalkulyator-workspace-v2\PixieForth\src\System.h **** 
  16:F:\kalkulyator-workspace-v2\PixieForth\src\System.h **** class System {
  17:F:\kalkulyator-workspace-v2\PixieForth\src\System.h **** private:
  18:F:\kalkulyator-workspace-v2\PixieForth\src\System.h ****     PicturedNumericArea& pictured_numeric_area_;
  19:F:\kalkulyator-workspace-v2\PixieForth\src\System.h ****     static DataStack& stack_;
  20:F:\kalkulyator-workspace-v2\PixieForth\src\System.h **** 
  21:F:\kalkulyator-workspace-v2\PixieForth\src\System.h ****     System() :
  22:F:\kalkulyator-workspace-v2\PixieForth\src\System.h ****         pictured_numeric_area_(PicturedNumericArea::instance()) { }
  62              		.loc 2 22 0 discriminator 2
  63 0016 FFF7FEFF 		bl	_ZN5forth19PicturedNumericArea8instanceEv
  64              	.LVL2:
  65              	.LEHE0:
  66 001a 074B     		ldr	r3, .L14+4
  67 001c 1860     		str	r0, [r3]
  68              	.LVL3:
  69              	.LBE24:
  70              	.LBE23:
  15:../src/System.cpp ****   return instance;
  71              		.loc 1 15 0 discriminator 2
  72 001e 0548     		ldr	r0, .L14
  73 0020 FFF7FEFF 		bl	__cxa_guard_release
  74              	.LVL4:
  75              		.loc 1 17 0 discriminator 2
  76 0024 0448     		ldr	r0, .L14+4
  77 0026 08BD     		pop	{r3, pc}
  78              	.LVL5:
  79              	.L6:
  15:../src/System.cpp ****   return instance;
  80              		.loc 1 15 0
  81 0028 0248     		ldr	r0, .L14
  82 002a FFF7FEFF 		bl	__cxa_guard_abort
  83              	.LVL6:
  84              	.LEHB1:
  85 002e FFF7FEFF 		bl	__cxa_end_cleanup
  86              	.LVL7:
  87              	.LEHE1:
  88              	.L15:
  89 0032 00BF     		.align	2
  90              	.L14:
  91 0034 00000000 		.word	.LANCHOR0
  92 0038 00000000 		.word	.LANCHOR1
  93              		.cfi_endproc
  94              	.LFE25:
  95              		.global	__gxx_personality_v0
  96              		.personality	__gxx_personality_v0
  97              		.handlerdata
  98              	.LLSDA25:
  99 000c FF       		.byte	0xff
 100 000d FF       		.byte	0xff
 101 000e 01       		.byte	0x1
 102 000f 08       		.uleb128 .LLSDACSE25-.LLSDACSB25
 103              	.LLSDACSB25:
 104 0010 16       		.uleb128 .LEHB0-.LFB25
 105 0011 04       		.uleb128 .LEHE0-.LEHB0
 106 0012 28       		.uleb128 .L6-.LFB25
 107 0013 00       		.uleb128 0
 108 0014 2E       		.uleb128 .LEHB1-.LFB25
 109 0015 04       		.uleb128 .LEHE1-.LEHB1
 110 0016 00       		.uleb128 0
 111 0017 00       		.uleb128 0
 112              	.LLSDACSE25:
 113              		.section	.text._ZN5forth6System8instanceEv
 114              		.fnend
 116              		.section	.text._ZN5forth6System3PopEv,"ax",%progbits
 117              		.align	2
 118              		.global	_ZN5forth6System3PopEv
 119              		.thumb
 120              		.thumb_func
 122              	_ZN5forth6System3PopEv:
 123              		.fnstart
 124              	.LFB26:
  18:../src/System.cpp **** 
  19:../src/System.cpp **** uint32_t System::Pop() {
 125              		.loc 1 19 0
 126              		.cfi_startproc
 127              		@ args = 0, pretend = 0, frame = 0
 128              		@ frame_needed = 0, uses_anonymous_args = 0
 129              		@ link register save eliminated.
 130              	.LVL8:
 131              	.LBB25:
 132              	.LBB26:
 133              		.file 3 "F:\\kalkulyator-workspace-v2\\PixieForth\\src/DataStack.h"
   1:F:\kalkulyator-workspace-v2\PixieForth\src\DataStack.h **** /*
   2:F:\kalkulyator-workspace-v2\PixieForth\src\DataStack.h ****  * DataStack.h
   3:F:\kalkulyator-workspace-v2\PixieForth\src\DataStack.h ****  *
   4:F:\kalkulyator-workspace-v2\PixieForth\src\DataStack.h ****  *  Created on: Oct 30, 2016
   5:F:\kalkulyator-workspace-v2\PixieForth\src\DataStack.h ****  *      Author: Robert
   6:F:\kalkulyator-workspace-v2\PixieForth\src\DataStack.h ****  */
   7:F:\kalkulyator-workspace-v2\PixieForth\src\DataStack.h **** 
   8:F:\kalkulyator-workspace-v2\PixieForth\src\DataStack.h **** #ifndef SRC_DATASTACK_H_
   9:F:\kalkulyator-workspace-v2\PixieForth\src\DataStack.h **** #define SRC_DATASTACK_H_
  10:F:\kalkulyator-workspace-v2\PixieForth\src\DataStack.h **** 
  11:F:\kalkulyator-workspace-v2\PixieForth\src\DataStack.h **** #include <cstdint>
  12:F:\kalkulyator-workspace-v2\PixieForth\src\DataStack.h **** 
  13:F:\kalkulyator-workspace-v2\PixieForth\src\DataStack.h **** namespace forth {
  14:F:\kalkulyator-workspace-v2\PixieForth\src\DataStack.h **** 
  15:F:\kalkulyator-workspace-v2\PixieForth\src\DataStack.h **** class DataStack {
  16:F:\kalkulyator-workspace-v2\PixieForth\src\DataStack.h **** private:
  17:F:\kalkulyator-workspace-v2\PixieForth\src\DataStack.h ****     static constexpr int stack_size_ = 1024;
  18:F:\kalkulyator-workspace-v2\PixieForth\src\DataStack.h ****     static std::uint32_t *sp_;
  19:F:\kalkulyator-workspace-v2\PixieForth\src\DataStack.h ****     static std::uint32_t data_stack_[stack_size_];
  20:F:\kalkulyator-workspace-v2\PixieForth\src\DataStack.h **** 
  21:F:\kalkulyator-workspace-v2\PixieForth\src\DataStack.h ****     DataStack() { Reset(); }
  22:F:\kalkulyator-workspace-v2\PixieForth\src\DataStack.h **** 
  23:F:\kalkulyator-workspace-v2\PixieForth\src\DataStack.h **** public:
  24:F:\kalkulyator-workspace-v2\PixieForth\src\DataStack.h ****     static DataStack& instance();
  25:F:\kalkulyator-workspace-v2\PixieForth\src\DataStack.h **** 
  26:F:\kalkulyator-workspace-v2\PixieForth\src\DataStack.h ****     void Reset() { sp_ = data_stack_; }
  27:F:\kalkulyator-workspace-v2\PixieForth\src\DataStack.h ****     std::uint32_t **GetSPPtr() { return &sp_; }
  28:F:\kalkulyator-workspace-v2\PixieForth\src\DataStack.h ****     void Push(std::uint32_t val) { *sp_++ = val; }
  29:F:\kalkulyator-workspace-v2\PixieForth\src\DataStack.h ****     std::uint32_t Pop() { return *--sp_; }
 134              		.loc 3 29 0
 135 0000 034A     		ldr	r2, .L17
 136 0002 1368     		ldr	r3, [r2]
 137 0004 191F     		subs	r1, r3, #4
 138 0006 1160     		str	r1, [r2]
 139              	.LBE26:
 140              	.LBE25:
  20:../src/System.cpp ****     return stack_.Pop();
  21:../src/System.cpp **** }
 141              		.loc 1 21 0
 142 0008 53F8040C 		ldr	r0, [r3, #-4]
 143 000c 7047     		bx	lr
 144              	.L18:
 145 000e 00BF     		.align	2
 146              	.L17:
 147 0010 00000000 		.word	_ZN5forth9DataStack3sp_E
 148              		.cfi_endproc
 149              	.LFE26:
 150              		.cantunwind
 151              		.fnend
 153              		.section	.text._ZN5forth6System3AddEv,"ax",%progbits
 154              		.align	2
 155              		.global	_ZN5forth6System3AddEv
 156              		.thumb
 157              		.thumb_func
 159              	_ZN5forth6System3AddEv:
 160              		.fnstart
 161              	.LFB27:
  22:../src/System.cpp **** 
  23:../src/System.cpp **** void System::Add() {
 162              		.loc 1 23 0
 163              		.cfi_startproc
 164              		@ args = 0, pretend = 0, frame = 0
 165              		@ frame_needed = 0, uses_anonymous_args = 0
 166              		@ link register save eliminated.
 167              	.LVL9:
 168              	.LBB27:
 169              	.LBB28:
 170              		.loc 3 29 0
 171 0000 0649     		ldr	r1, .L21
 172 0002 0B68     		ldr	r3, [r1]
 173              	.LBE28:
 174              	.LBE27:
 175              		.loc 1 23 0
 176 0004 10B4     		push	{r4}
 177              		.cfi_def_cfa_offset 4
 178              		.cfi_offset 4, -4
 179              	.LBB31:
 180              	.LBB32:
  30:F:\kalkulyator-workspace-v2\PixieForth\src\DataStack.h ****     std::uint32_t Peek(int offset) { return *(sp_ - offset - 1); }
  31:F:\kalkulyator-workspace-v2\PixieForth\src\DataStack.h ****     void Put(int offset, std::uint32_t val) { *(sp_ - offset - 1) = val; }
 181              		.loc 3 31 0
 182 0006 53F8042C 		ldr	r2, [r3, #-4]
 183 000a 53F8084C 		ldr	r4, [r3, #-8]
 184              	.LBE32:
 185              	.LBE31:
 186              	.LBB35:
 187              	.LBB29:
  29:F:\kalkulyator-workspace-v2\PixieForth\src\DataStack.h ****     std::uint32_t Peek(int offset) { return *(sp_ - offset - 1); }
 188              		.loc 3 29 0
 189 000e 181F     		subs	r0, r3, #4
 190              	.LBE29:
 191              	.LBE35:
 192              	.LBB36:
 193              	.LBB33:
 194              		.loc 3 31 0
 195 0010 2244     		add	r2, r2, r4
 196              	.LBE33:
 197              	.LBE36:
 198              	.LBB37:
 199              	.LBB30:
  29:F:\kalkulyator-workspace-v2\PixieForth\src\DataStack.h ****     std::uint32_t Peek(int offset) { return *(sp_ - offset - 1); }
 200              		.loc 3 29 0
 201 0012 0860     		str	r0, [r1]
 202              	.LVL10:
 203              	.LBE30:
 204              	.LBE37:
  24:../src/System.cpp ****     std::uint32_t x = stack_.Pop();
  25:../src/System.cpp ****     stack_.Put(0, stack_.Peek(0) + x);
  26:../src/System.cpp **** }
 205              		.loc 1 26 0
 206 0014 10BC     		pop	{r4}
 207              		.cfi_restore 4
 208              		.cfi_def_cfa_offset 0
 209              	.LBB38:
 210              	.LBB34:
 211              		.loc 3 31 0
 212 0016 43F8082C 		str	r2, [r3, #-8]
 213              	.LVL11:
 214              	.LBE34:
 215              	.LBE38:
 216              		.loc 1 26 0
 217 001a 7047     		bx	lr
 218              	.L22:
 219              		.align	2
 220              	.L21:
 221 001c 00000000 		.word	_ZN5forth9DataStack3sp_E
 222              		.cfi_endproc
 223              	.LFE27:
 224              		.cantunwind
 225              		.fnend
 227              		.section	.text._ZN5forth6System5StoreEv,"ax",%progbits
 228              		.align	2
 229              		.global	_ZN5forth6System5StoreEv
 230              		.thumb
 231              		.thumb_func
 233              	_ZN5forth6System5StoreEv:
 234              		.fnstart
 235              	.LFB28:
  27:../src/System.cpp **** 
  28:../src/System.cpp **** void System::Store() {
 236              		.loc 1 28 0
 237              		.cfi_startproc
 238              		@ args = 0, pretend = 0, frame = 0
 239              		@ frame_needed = 0, uses_anonymous_args = 0
 240              		@ link register save eliminated.
 241              	.LVL12:
 242              	.LBB39:
 243              	.LBB40:
 244              	.LBB41:
  29:F:\kalkulyator-workspace-v2\PixieForth\src\DataStack.h ****     std::uint32_t Peek(int offset) { return *(sp_ - offset - 1); }
 245              		.loc 3 29 0
 246 0000 034A     		ldr	r2, .L24
 247 0002 1368     		ldr	r3, [r2]
 248              	.LBE41:
 249              	.LBE40:
 250              	.LBE39:
 251              	.LBB42:
 252              	.LBB43:
 253              	.LBB44:
 254 0004 13E90300 		ldmdb	r3, {r0, r1}
 255 0008 083B     		subs	r3, r3, #8
 256 000a 1360     		str	r3, [r2]
 257              	.LBE44:
 258              	.LBE43:
 259              	.LBE42:
  29:../src/System.cpp ****     uint32_t *addr = (uint32_t *) Pop();
  30:../src/System.cpp ****     *addr = Pop();
 260              		.loc 1 30 0
 261 000c 0860     		str	r0, [r1]
 262 000e 7047     		bx	lr
 263              	.L25:
 264              		.align	2
 265              	.L24:
 266 0010 00000000 		.word	_ZN5forth9DataStack3sp_E
 267              		.cfi_endproc
 268              	.LFE28:
 269              		.cantunwind
 270              		.fnend
 272              		.section	.text.startup._GLOBAL__sub_I__ZN5forth6System6stack_E,"ax",%progbits
 273              		.align	2
 274              		.thumb
 275              		.thumb_func
 277              	_GLOBAL__sub_I__ZN5forth6System6stack_E:
 278              		.fnstart
 279              	.LFB30:
  31:../src/System.cpp **** }
  32:../src/System.cpp **** 
  33:../src/System.cpp **** }
 280              		.loc 1 33 0
 281              		.cfi_startproc
 282              		@ args = 0, pretend = 0, frame = 0
 283              		@ frame_needed = 0, uses_anonymous_args = 0
 284              	.LVL13:
 285 0000 08B5     		push	{r3, lr}
 286              		.cfi_def_cfa_offset 8
 287              		.cfi_offset 3, -8
 288              		.cfi_offset 14, -4
 289              	.LBB45:
 290              	.LBB46:
  12:../src/System.cpp **** 
 291              		.loc 1 12 0
 292 0002 FFF7FEFF 		bl	_ZN5forth9DataStack8instanceEv
 293              	.LVL14:
 294 0006 014B     		ldr	r3, .L28
 295 0008 1860     		str	r0, [r3]
 296              	.LVL15:
 297 000a 08BD     		pop	{r3, pc}
 298              	.L29:
 299              		.align	2
 300              	.L28:
 301 000c 00000000 		.word	.LANCHOR2
 302              	.LBE46:
 303              	.LBE45:
 304              		.cfi_endproc
 305              	.LFE30:
 306              		.cantunwind
 307              		.fnend
 309              		.section	.init_array,"aw",%init_array
 310              		.align	2
 311 0000 00000000 		.word	_GLOBAL__sub_I__ZN5forth6System6stack_E(target1)
 312              		.global	_ZN5forth6System6stack_E
 313              		.section	.bss._ZGVZN5forth6System8instanceEvE8instance,"aw",%nobits
 314              		.align	2
 315              		.set	.LANCHOR0,. + 0
 318              	_ZGVZN5forth6System8instanceEvE8instance:
 319 0000 00000000 		.space	4
 320              		.section	.bss._ZZN5forth6System8instanceEvE8instance,"aw",%nobits
 321              		.align	2
 322              		.set	.LANCHOR1,. + 0
 325              	_ZZN5forth6System8instanceEvE8instance:
 326 0000 00000000 		.space	4
 327              		.section	.bss._ZN5forth6System6stack_E,"aw",%nobits
 328              		.align	2
 329              		.set	.LANCHOR2,. + 0
 332              	_ZN5forth6System6stack_E:
 333 0000 00000000 		.space	4
 334              		.text
 335              	.Letext0:
 336              		.file 4 "c:\\program files (x86)\\gnu tools arm embedded\\5.4 2016q3\\arm-none-eabi\\include\\c++\
 337              		.file 5 "c:\\program files (x86)\\gnu tools arm embedded\\5.4 2016q3\\arm-none-eabi\\include\\c++\
 338              		.file 6 "c:\\program files (x86)\\gnu tools arm embedded\\5.4 2016q3\\arm-none-eabi\\include\\c++\
 339              		.file 7 "c:\\program files (x86)\\gnu tools arm embedded\\5.4 2016q3\\lib\\gcc\\arm-none-eabi\\5.4
 340              		.file 8 "c:\\program files (x86)\\gnu tools arm embedded\\5.4 2016q3\\arm-none-eabi\\include\\mach
 341              		.file 9 "c:\\program files (x86)\\gnu tools arm embedded\\5.4 2016q3\\arm-none-eabi\\include\\stri
 342              		.file 10 "F:\\kalkulyator-workspace-v2\\PixieForth\\src/PicturedNumericArea.h"
 343              		.file 11 "c:\\program files (x86)\\gnu tools arm embedded\\5.4 2016q3\\arm-none-eabi\\include\\sys
 344              		.file 12 "c:\\program files (x86)\\gnu tools arm embedded\\5.4 2016q3\\arm-none-eabi\\include\\std
 345              		.file 13 "<built-in>"